	.text
	.def	 @feat.00;
	.scl	3;
	.type	0;
	.endef
	.globl	@feat.00
.set @feat.00, 0
	.file	"llvm-link"
	.def	 __meth;
	.scl	2;
	.type	32;
	.endef
	.globl	__meth                          # -- Begin function __meth
	.p2align	4, 0x90
__meth:                                 # @__meth
.seh_proc __meth
# %bb.0:                                # %"$1"
	pushq	%rbp
	.seh_pushreg %rbp
	pushq	%r15
	.seh_pushreg %r15
	pushq	%r14
	.seh_pushreg %r14
	pushq	%rsi
	.seh_pushreg %rsi
	pushq	%rdi
	.seh_pushreg %rdi
	pushq	%rbx
	.seh_pushreg %rbx
	pushq	%rax
	.seh_stackalloc 8
	movq	%rsp, %rbp
	.seh_setframe %rbp, 0
	.seh_endprologue
	movq	%rdx, %r15
	movq	%rcx, %r14
	movq	8(%rcx), %rdi
	movq	(%rdi), %rbx
	testb	$6, %bl
	jne	.LBB0_4
# %bb.1:                                # %"$3"
	testb	$8, %bl
	jne	.LBB0_2
# %bb.3:                                # %"$5"
	subq	$32, %rsp
	movq	%rbx, %rcx
	callq	evList
	addq	$32, %rsp
	movq	%rax, %rbx
	jmp	.LBB0_4
.LBB0_2:                                # %"$6"
	movq	(%rbx), %rbx
.LBB0_4:                                # %"$2"
	movq	env(%rip), %rcx
	movl	$16, %eax
	callq	___chkstk_ms
	subq	%rax, %rsp
	movq	%rsp, %rsi
	movq	%rbx, (%rsi)
	movq	%rsi, %rax
	orq	$8, %rax
	movq	%rcx, (%rax)
	movq	%rsi, env(%rip)
	movl	%ebx, %eax
	andl	$14, %eax
	cmpl	$8, %eax
	jne	.LBB0_12
# %bb.5:                                # %"$8"
	movq	-8(%rbx), %rax
	testb	$8, %al
	je	.LBB0_10
# %bb.6:                                # %"$8"
	movl	%eax, %ecx
	andl	$6, %ecx
	testq	%rcx, %rcx
	je	.LBB0_10
# %bb.7:                                # %"$3.i"
	addq	%rax, %rax
	jb	.LBB0_10
# %bb.8:                                # %"$2.i"
	addq	%rax, %rax
	jb	.LBB0_10
# %bb.9:                                # %"$5.i"
	movl	$1, %r8d
	shldq	$62, %rax, %r8
	movq	%r8, -8(%rbx)
	subq	$32, %rsp
	movq	%r14, %rcx
	movq	%rbx, %rdx
	callq	db
	addq	$32, %rsp
.LBB0_10:                               # %"$10"
	movq	$0, ($Ret)(%rip)
	subq	$32, %rsp
	movq	%rbx, %rcx
	movq	%r15, %rdx
	callq	method
	addq	$32, %rsp
	testq	%rax, %rax
	je	.LBB0_11
# %bb.13:                               # %"$11"
	movq	($Ret)(%rip), %rdx
	movq	8(%rdi), %rcx
	subq	$48, %rsp
	movq	%rcx, 32(%rsp)
	movq	%rbx, %rcx
	movq	%r15, %r8
	movq	%rax, %r9
	callq	evMethod
	addq	$48, %rsp
	movq	8(%rsi), %rcx
	movq	%rcx, env(%rip)
	leaq	8(%rbp), %rsp
	popq	%rbx
	popq	%rdi
	popq	%rsi
	popq	%r14
	popq	%r15
	popq	%rbp
	retq
.LBB0_12:                               # %"$7"
	subq	$32, %rsp
	movq	%r14, %rcx
	movq	%rbx, %rdx
	callq	symErr
.LBB0_11:                               # %"$12"
	subq	$32, %rsp
	leaq	.L$70(%rip), %r8
	movq	%r14, %rcx
	movq	%r15, %rdx
	xorl	%r9d, %r9d
	callq	err
	int3
	.seh_handlerdata
	.text
	.seh_endproc
                                        # -- End function
	.def	 _quote;
	.scl	2;
	.type	32;
	.endef
	.globl	_quote                          # -- Begin function _quote
	.p2align	4, 0x90
_quote:                                 # @_quote
# %bb.0:                                # %"$1"
	movq	8(%rcx), %rax
	retq
                                        # -- End function
	.def	 _gc;
	.scl	2;
	.type	32;
	.endef
	.globl	_gc                             # -- Begin function _gc
	.p2align	4, 0x90
_gc:                                    # @_gc
.seh_proc _gc
# %bb.0:                                # %"$1"
	pushq	%rsi
	.seh_pushreg %rsi
	pushq	%rdi
	.seh_pushreg %rdi
	pushq	%rbx
	.seh_pushreg %rbx
	subq	$32, %rsp
	.seh_stackalloc 32
	.seh_endprologue
	movq	%rcx, %rdi
	movq	8(%rcx), %rbx
	movq	(%rbx), %rsi
	testb	$6, %sil
	jne	.LBB2_4
# %bb.1:                                # %"$3"
	testb	$8, %sil
	jne	.LBB2_2
# %bb.3:                                # %"$5"
	movq	%rsi, %rcx
	callq	evList
	movq	%rax, %rsi
	jmp	.LBB2_4
.LBB2_2:                                # %"$6"
	movq	(%rsi), %rsi
.LBB2_4:                                # %"$2"
	leaq	SymTab+8(%rip), %rax
	movq	%rax, SymTab+440(%rip)
	movq	%rax, SymTab+456(%rip)
	cmpq	%rax, %rsi
	jne	.LBB2_6
# %bb.5:                                # %"$7"
	callq	gc
	jmp	.LBB2_15
.LBB2_6:                                # %"$8"
	testb	$2, %sil
	je	.LBB2_16
# %bb.7:                                # %xCnt.exit
	movq	%rsi, %rax
	shrq	$4, %rax
	movq	%rax, %rcx
	negq	%rcx
	testb	$8, %sil
	cmoveq	%rax, %rcx
	shlq	$16, %rcx
	movq	%rcx, ($GcCount)(%rip)
	callq	gc
	movq	8(%rbx), %rax
	movl	$65536, %ecx                    # imm = 0x10000
	testb	$15, %al
	jne	.LBB2_14
# %bb.8:                                # %"$11"
	movq	(%rax), %rax
	testb	$6, %al
	jne	.LBB2_12
# %bb.9:                                # %"$3.i"
	testb	$8, %al
	jne	.LBB2_10
# %bb.11:                               # %"$5.i"
	movq	%rax, %rcx
	callq	evList
	jmp	.LBB2_12
.LBB2_10:                               # %"$6.i"
	movq	(%rax), %rax
.LBB2_12:                               # %"$2.i5"
	testb	$2, %al
	je	.LBB2_17
# %bb.13:                               # %evCnt.exit
	movq	%rax, %rdx
	shrq	$4, %rdx
	movq	%rdx, %rcx
	negq	%rcx
	testb	$8, %al
	cmoveq	%rdx, %rcx
	shlq	$16, %rcx
.LBB2_14:                               # %"$12"
	movq	%rcx, ($GcCount)(%rip)
.LBB2_15:                               # %"$9"
	movq	%rsi, %rax
	addq	$32, %rsp
	popq	%rbx
	popq	%rdi
	popq	%rsi
	retq
.LBB2_16:                               # %"$2.i"
	movq	%rdi, %rcx
	movq	%rsi, %rdx
	callq	cntErr
.LBB2_17:                               # %"$2.i.i"
	movq	%rdi, %rcx
	movq	%rax, %rdx
	callq	cntErr
	int3
	.seh_handlerdata
	.text
	.seh_endproc
                                        # -- End function
	.def	 _format;
	.scl	2;
	.type	32;
	.endef
	.globl	_format                         # -- Begin function _format
	.p2align	4, 0x90
_format:                                # @_format
.seh_proc _format
# %bb.0:                                # %"$1"
	pushq	%rbp
	.seh_pushreg %rbp
	pushq	%r15
	.seh_pushreg %r15
	pushq	%r14
	.seh_pushreg %r14
	pushq	%r13
	.seh_pushreg %r13
	pushq	%r12
	.seh_pushreg %r12
	pushq	%rsi
	.seh_pushreg %rsi
	pushq	%rdi
	.seh_pushreg %rdi
	pushq	%rbx
	.seh_pushreg %rbx
	pushq	%rax
	.seh_stackalloc 8
	movq	%rsp, %rbp
	.seh_setframe %rbp, 0
	.seh_endprologue
	movq	%rcx, %rsi
	movq	8(%rcx), %rax
	movq	(%rax), %r13
	movq	8(%rax), %rdi
	testb	$6, %r13b
	jne	.LBB3_4
# %bb.1:                                # %"$3"
	testb	$8, %r13b
	jne	.LBB3_3
# %bb.2:                                # %"$5"
	subq	$32, %rsp
	movq	%r13, %rcx
	callq	evList
	addq	$32, %rsp
	movq	%rax, %r13
	jmp	.LBB3_4
.LBB3_3:                                # %"$6"
	movq	(%r13), %r13
.LBB3_4:                                # %"$2"
	movq	env(%rip), %rcx
	movl	$16, %eax
	callq	___chkstk_ms
	subq	%rax, %rsp
	movq	%rsp, %r15
	movq	%r13, (%r15)
	movq	%r15, %rax
	orq	$8, %rax
	movq	%rcx, (%rax)
	movq	%r15, env(%rip)
	movq	(%rdi), %rax
	movq	8(%rdi), %rdi
	testb	$6, %al
	jne	.LBB3_8
# %bb.5:                                # %"$8"
	testb	$8, %al
	jne	.LBB3_7
# %bb.6:                                # %"$10"
	subq	$32, %rsp
	movq	%rax, %rcx
	callq	evList
	addq	$32, %rsp
	jmp	.LBB3_8
.LBB3_7:                                # %"$11"
	movq	(%rax), %rax
.LBB3_8:                                # %"$7"
	leaq	SymTab+8(%rip), %r12
	cmpq	%r12, %rax
	jne	.LBB3_11
# %bb.9:
	xorl	%r14d, %r14d
	testb	$15, %dil
	je	.LBB3_13
.LBB3_10:
	movb	$46, %dil
	jmp	.LBB3_40
.LBB3_11:                               # %"$13"
	testb	$2, %al
	je	.LBB3_51
# %bb.12:                               # %xCnt.exit
	movq	%rax, %rcx
	shrq	$4, %rcx
	movq	%rcx, %r14
	negq	%r14
	testb	$8, %al
	cmoveq	%rcx, %r14
	testb	$15, %dil
	jne	.LBB3_10
.LBB3_13:                               # %"$15"
	movq	(%rdi), %rax
	movq	8(%rdi), %rbx
	testb	$6, %al
	jne	.LBB3_17
# %bb.14:                               # %"$18"
	testb	$8, %al
	jne	.LBB3_16
# %bb.15:                               # %"$20"
	subq	$32, %rsp
	movq	%rax, %rcx
	callq	evList
	addq	$32, %rsp
	jmp	.LBB3_17
.LBB3_16:                               # %"$21"
	movq	(%rax), %rax
.LBB3_17:                               # %"$17"
	movl	%eax, %ecx
	andl	$14, %ecx
	cmpl	$8, %ecx
	jne	.LBB3_52
# %bb.18:                               # %"$23"
	leaq	SymTab+8(%rip), %rdx
	cmpq	%rdx, %rax
	je	.LBB3_25
# %bb.20:                               # %"$3.i"
	movq	-8(%rax), %rdi
	testb	$8, %dil
	jne	.LBB3_25
	.p2align	4, 0x90
# %bb.21:                               # %"$8.i"
	testb	$6, %dil
	jne	.LBB3_23
.LBB3_22:                               # %"$8.i"
                                        # =>This Inner Loop Header: Depth=1
	movq	8(%rdi), %rdi
	testb	$6, %dil
	je	.LBB3_22
.LBB3_23:                               # %"$9.i"
	testb	$2, %dil
	jne	.LBB3_27
# %bb.24:                               # %"$10.i"
	movb	-4(%rdi), %dil
	testb	$15, %bl
	jne	.LBB3_40
	jmp	.LBB3_28
.LBB3_25:
	xorl	%edi, %edi
	testb	$15, %bl
	jne	.LBB3_40
.LBB3_28:                               # %"$24"
	movq	(%rbx), %rax
	testb	$6, %al
	jne	.LBB3_32
# %bb.29:                               # %"$27"
	testb	$8, %al
	jne	.LBB3_31
# %bb.30:                               # %"$29"
	subq	$32, %rsp
	movq	%rax, %rcx
	movq	%rdx, %rbx
	callq	evList
	movq	%rbx, %rdx
	addq	$32, %rsp
	jmp	.LBB3_32
.LBB3_27:                               # %"$11.i"
	shrq	$4, %rdi
	testb	$15, %bl
	jne	.LBB3_40
	jmp	.LBB3_28
.LBB3_31:                               # %"$30"
	movq	(%rax), %rax
.LBB3_32:                               # %"$26"
	movl	%eax, %ecx
	andl	$14, %ecx
	cmpl	$8, %ecx
	jne	.LBB3_52
# %bb.33:                               # %"$32"
	cmpq	%rdx, %rax
	je	.LBB3_40
# %bb.35:                               # %"$3.i22"
	movq	-8(%rax), %rbx
	testb	$8, %bl
	jne	.LBB3_40
	.p2align	4, 0x90
# %bb.36:                               # %"$8.i26"
	testb	$6, %bl
	jne	.LBB3_38
.LBB3_37:                               # %"$8.i26"
                                        # =>This Inner Loop Header: Depth=1
	movq	8(%rbx), %rbx
	testb	$6, %bl
	je	.LBB3_37
.LBB3_38:                               # %"$9.i29"
	testb	$2, %bl
	jne	.LBB3_43
# %bb.39:                               # %"$10.i33"
	movb	-4(%rbx), %bl
	testb	$6, %r13b
	jne	.LBB3_41
	jmp	.LBB3_44
.LBB3_40:
	xorl	%ebx, %ebx
	testb	$6, %r13b
	je	.LBB3_44
.LBB3_41:                               # %"$35"
	movl	$32, %eax
	callq	___chkstk_ms
	subq	%rax, %rsp
	movq	%rsp, %rsi
	movq	$4, (%rsi)
	leaq	16(%rsi), %rax
	movq	$2, 16(%rsi)
	movq	env(%rip), %rcx
	movq	%rcx, 24(%rsi)
	movq	%rax, env(%rip)
	subq	$48, %rsp
	movq	%rsi, 32(%rsp)
	movq	%r13, %rcx
	movq	%r14, %rdx
	movl	%edi, %r8d
	movl	%ebx, %r9d
	callq	fmtNum
	addq	$48, %rsp
	movq	16(%rsi), %rcx
	cmpq	$2, %rcx
	je	.LBB3_50
# %bb.42:                               # %"$3.i37"
	subq	$32, %rsp
	xorl	%edx, %edx
	callq	consSym
	addq	$32, %rsp
	movq	%rax, %r12
	jmp	.LBB3_50
.LBB3_43:                               # %"$11.i31"
	shrq	$4, %rbx
	testb	$6, %r13b
	jne	.LBB3_41
.LBB3_44:                               # %"$34"
	testb	$8, %r13b
	jne	.LBB3_47
# %bb.45:                               # %"$36"
	movl	$32, %eax
	callq	___chkstk_ms
	subq	%rax, %rsp
	movq	%rsp, %rsi
	movq	$4, (%rsi)
	leaq	16(%rsi), %rax
	movq	$2, 16(%rsi)
	movq	env(%rip), %rcx
	movq	%rcx, 24(%rsi)
	movq	%rax, env(%rip)
	subq	$32, %rsp
	movq	%r13, %rcx
	movq	%rsi, %rdx
	callq	pack
	addq	$32, %rsp
	movq	16(%rsi), %rcx
	jmp	.LBB3_46
.LBB3_47:                               # %"$37"
	movq	-8(%r13), %rcx
	testb	$8, %cl
	jne	.LBB3_50
	.p2align	4, 0x90
# %bb.48:                               # %"$41.preheader"
	testb	$6, %cl
	jne	.LBB3_46
.LBB3_49:                               # %"$42"
                                        # =>This Inner Loop Header: Depth=1
	movq	8(%rcx), %rcx
	testb	$6, %cl
	je	.LBB3_49
.LBB3_46:                               # %"$33"
	subq	$32, %rsp
	movq	%r14, %rdx
	movl	%edi, %r8d
	movl	%ebx, %r9d
	callq	symToNum
	addq	$32, %rsp
	testq	%rax, %rax
	leaq	SymTab+8(%rip), %r12
	cmovneq	%rax, %r12
.LBB3_50:                               # %"$33"
	movq	8(%r15), %rax
	movq	%rax, env(%rip)
	movq	%r12, %rax
	leaq	8(%rbp), %rsp
	popq	%rbx
	popq	%rdi
	popq	%rsi
	popq	%r12
	popq	%r13
	popq	%r14
	popq	%r15
	popq	%rbp
	retq
.LBB3_51:                               # %"$2.i"
	subq	$32, %rsp
	movq	%rsi, %rcx
	movq	%rax, %rdx
	callq	cntErr
.LBB3_52:                               # %"$22"
	subq	$32, %rsp
	movq	%rsi, %rcx
	movq	%rax, %rdx
	callq	symErr
	int3
	.seh_handlerdata
	.text
	.seh_endproc
                                        # -- End function
	.def	 _add;
	.scl	2;
	.type	32;
	.endef
	.globl	_add                            # -- Begin function _add
	.p2align	4, 0x90
_add:                                   # @_add
.seh_proc _add
# %bb.0:                                # %"$1"
	pushq	%rbp
	.seh_pushreg %rbp
	pushq	%r15
	.seh_pushreg %r15
	pushq	%r14
	.seh_pushreg %r14
	pushq	%rsi
	.seh_pushreg %rsi
	pushq	%rdi
	.seh_pushreg %rdi
	pushq	%rbx
	.seh_pushreg %rbx
	pushq	%rax
	.seh_stackalloc 8
	movq	%rsp, %rbp
	.seh_setframe %rbp, 0
	.seh_endprologue
	movq	%rcx, %r14
	movq	8(%rcx), %rsi
	movq	(%rsi), %rdx
	testb	$6, %dl
	jne	.LBB4_4
# %bb.1:                                # %"$3"
	testb	$8, %dl
	jne	.LBB4_2
# %bb.3:                                # %"$5"
	subq	$32, %rsp
	movq	%rdx, %rcx
	callq	evList
	addq	$32, %rsp
	movq	%rax, %rdx
	jmp	.LBB4_4
.LBB4_2:                                # %"$6"
	movq	(%rdx), %rdx
.LBB4_4:                                # %"$2"
	leaq	SymTab+8(%rip), %rax
	cmpq	%rax, %rdx
	je	.LBB4_26
# %bb.5:                                # %"$8"
	movq	env(%rip), %rcx
	movl	$16, %eax
	callq	___chkstk_ms
	subq	%rax, %rsp
	movq	%rsp, %rdi
	movq	$10, (%rdi)
	movq	%rdi, %rax
	orq	$8, %rax
	movq	%rcx, (%rax)
	movq	%rdi, env(%rip)
	testb	$6, %dl
	je	.LBB4_27
# %bb.6:                                # %"$11"
	movl	$16, %eax
	callq	___chkstk_ms
	subq	%rax, %rsp
	movq	%rsp, %rbx
	movq	%rdx, (%rbx)
	movq	%rdi, 8(%rbx)
	movq	%rbx, env(%rip)
	movq	8(%rsi), %rsi
	testb	$15, %sil
	jne	.LBB4_25
# %bb.7:                                # %"$13.preheader"
	leaq	SymTab+8(%rip), %r15
	jmp	.LBB4_8
	.p2align	4, 0x90
.LBB4_22:                               # %"$9.i"
                                        #   in Loop: Header=BB4_8 Depth=1
	andq	$-9, %rdx
	subq	$32, %rsp
	callq	addu
.LBB4_23:                               # %"$10.i"
                                        #   in Loop: Header=BB4_8 Depth=1
	addq	$32, %rsp
	movq	%rax, %rdx
	xorq	$8, %rdx
	cmpq	$2, %rax
	cmoveq	%rax, %rdx
.LBB4_24:                               # %adds.exit
                                        #   in Loop: Header=BB4_8 Depth=1
	movq	%rdx, (%rbx)
	movq	8(%rsi), %rsi
	testb	$15, %sil
	jne	.LBB4_25
.LBB4_8:                                # %"$13"
                                        # =>This Inner Loop Header: Depth=1
	movq	(%rsi), %rdx
	testb	$6, %dl
	jne	.LBB4_12
# %bb.9:                                # %"$17"
                                        #   in Loop: Header=BB4_8 Depth=1
	testb	$8, %dl
	jne	.LBB4_10
# %bb.11:                               # %"$19"
                                        #   in Loop: Header=BB4_8 Depth=1
	subq	$32, %rsp
	movq	%rdx, %rcx
	callq	evList
	addq	$32, %rsp
	movq	%rax, %rdx
	jmp	.LBB4_12
.LBB4_10:                               # %"$20"
                                        #   in Loop: Header=BB4_8 Depth=1
	movq	(%rdx), %rdx
	.p2align	4, 0x90
.LBB4_12:                               # %"$16"
                                        #   in Loop: Header=BB4_8 Depth=1
	cmpq	%r15, %rdx
	je	.LBB4_13
# %bb.14:                               # %"$21"
                                        #   in Loop: Header=BB4_8 Depth=1
	testb	$6, %dl
	je	.LBB4_27
# %bb.15:                               # %"$24"
                                        #   in Loop: Header=BB4_8 Depth=1
	movq	%rdx, (%rdi)
	movq	(%rbx), %rcx
	testb	$8, %cl
	jne	.LBB4_20
# %bb.16:                               # %"$2.i"
                                        #   in Loop: Header=BB4_8 Depth=1
	testb	$8, %dl
	jne	.LBB4_19
# %bb.17:                               # %"$5.i"
                                        #   in Loop: Header=BB4_8 Depth=1
	subq	$32, %rsp
	callq	addu
	jmp	.LBB4_18
	.p2align	4, 0x90
.LBB4_20:                               # %"$3.i"
                                        #   in Loop: Header=BB4_8 Depth=1
	andq	$-9, %rcx
	testb	$8, %dl
	jne	.LBB4_22
# %bb.21:                               # %"$8.i"
                                        #   in Loop: Header=BB4_8 Depth=1
	subq	$32, %rsp
	callq	subu
	jmp	.LBB4_23
	.p2align	4, 0x90
.LBB4_19:                               # %"$6.i"
                                        #   in Loop: Header=BB4_8 Depth=1
	andq	$-9, %rdx
	subq	$32, %rsp
	callq	subu
.LBB4_18:                               # %adds.exit
                                        #   in Loop: Header=BB4_8 Depth=1
	addq	$32, %rsp
	movq	%rax, %rdx
	jmp	.LBB4_24
.LBB4_13:
	movq	%r15, %rdx
.LBB4_25:                               # %"$14"
	movq	8(%rdi), %rax
	movq	%rax, env(%rip)
	movq	%rdx, %rax
.LBB4_26:                               # %"$9"
	leaq	8(%rbp), %rsp
	popq	%rbx
	popq	%rdi
	popq	%rsi
	popq	%r14
	popq	%r15
	popq	%rbp
	retq
.LBB4_27:                               # %"$10"
	subq	$32, %rsp
	movq	%r14, %rcx
	callq	numErr
	int3
	.seh_handlerdata
	.text
	.seh_endproc
                                        # -- End function
	.def	 _sub;
	.scl	2;
	.type	32;
	.endef
	.globl	_sub                            # -- Begin function _sub
	.p2align	4, 0x90
_sub:                                   # @_sub
.seh_proc _sub
# %bb.0:                                # %"$1"
	pushq	%rbp
	.seh_pushreg %rbp
	pushq	%r15
	.seh_pushreg %r15
	pushq	%r14
	.seh_pushreg %r14
	pushq	%rsi
	.seh_pushreg %rsi
	pushq	%rdi
	.seh_pushreg %rdi
	pushq	%rbx
	.seh_pushreg %rbx
	pushq	%rax
	.seh_stackalloc 8
	movq	%rsp, %rbp
	.seh_setframe %rbp, 0
	.seh_endprologue
	movq	%rcx, %r14
	movq	8(%rcx), %rax
	movq	(%rax), %rdx
	movq	8(%rax), %rdi
	testb	$6, %dl
	jne	.LBB5_4
# %bb.1:                                # %"$3"
	testb	$8, %dl
	jne	.LBB5_2
# %bb.3:                                # %"$5"
	subq	$32, %rsp
	movq	%rdx, %rcx
	callq	evList
	addq	$32, %rsp
	movq	%rax, %rdx
	jmp	.LBB5_4
.LBB5_2:                                # %"$6"
	movq	(%rdx), %rdx
.LBB5_4:                                # %"$2"
	leaq	SymTab+8(%rip), %rax
	cmpq	%rax, %rdx
	je	.LBB5_26
# %bb.5:                                # %"$8"
	testb	$6, %dl
	je	.LBB5_27
# %bb.6:                                # %"$11"
	testb	$15, %dil
	je	.LBB5_8
# %bb.7:                                # %"$12"
	movq	%rdx, %rax
	xorq	$8, %rax
	cmpq	$2, %rdx
	cmoveq	%rdx, %rax
	jmp	.LBB5_26
.LBB5_8:                                # %"$13"
	movq	env(%rip), %rcx
	movl	$16, %eax
	callq	___chkstk_ms
	subq	%rax, %rsp
	movq	%rsp, %rbx
	movq	$10, (%rbx)
	movq	%rbx, %rax
	orq	$8, %rax
	movq	%rcx, (%rax)
	movl	$16, %eax
	callq	___chkstk_ms
	subq	%rax, %rsp
	movq	%rsp, %rsi
	movq	%rdx, (%rsi)
	movq	%rbx, 8(%rsi)
	movq	%rsi, env(%rip)
	leaq	SymTab+8(%rip), %r15
	jmp	.LBB5_9
	.p2align	4, 0x90
.LBB5_22:                               # %"$9.i"
                                        #   in Loop: Header=BB5_9 Depth=1
	andq	$-9, %rdx
	subq	$32, %rsp
	callq	subu
.LBB5_23:                               # %"$10.i"
                                        #   in Loop: Header=BB5_9 Depth=1
	addq	$32, %rsp
	movq	%rax, %rcx
	xorq	$8, %rax
	cmpq	$2, %rcx
	cmoveq	%rcx, %rax
.LBB5_24:                               # %subs.exit
                                        #   in Loop: Header=BB5_9 Depth=1
	movq	%rax, (%rsi)
	testb	$15, %dil
	jne	.LBB5_25
.LBB5_9:                                # %"$18"
                                        # =>This Inner Loop Header: Depth=1
	movq	(%rdi), %rdx
	movq	8(%rdi), %rdi
	testb	$6, %dl
	jne	.LBB5_13
# %bb.10:                               # %"$20"
                                        #   in Loop: Header=BB5_9 Depth=1
	testb	$8, %dl
	jne	.LBB5_11
# %bb.12:                               # %"$22"
                                        #   in Loop: Header=BB5_9 Depth=1
	subq	$32, %rsp
	movq	%rdx, %rcx
	callq	evList
	addq	$32, %rsp
	movq	%rax, %rdx
	jmp	.LBB5_13
.LBB5_11:                               # %"$23"
                                        #   in Loop: Header=BB5_9 Depth=1
	movq	(%rdx), %rdx
	.p2align	4, 0x90
.LBB5_13:                               # %"$19"
                                        #   in Loop: Header=BB5_9 Depth=1
	cmpq	%r15, %rdx
	je	.LBB5_14
# %bb.15:                               # %"$24"
                                        #   in Loop: Header=BB5_9 Depth=1
	testb	$6, %dl
	je	.LBB5_27
# %bb.16:                               # %"$28"
                                        #   in Loop: Header=BB5_9 Depth=1
	movq	%rdx, (%rbx)
	movq	(%rsi), %rcx
	testb	$8, %cl
	jne	.LBB5_20
# %bb.17:                               # %"$2.i"
                                        #   in Loop: Header=BB5_9 Depth=1
	testb	$8, %dl
	jne	.LBB5_19
# %bb.18:                               # %"$5.i"
                                        #   in Loop: Header=BB5_9 Depth=1
	subq	$32, %rsp
	callq	subu
	addq	$32, %rsp
	jmp	.LBB5_24
	.p2align	4, 0x90
.LBB5_20:                               # %"$3.i"
                                        #   in Loop: Header=BB5_9 Depth=1
	andq	$-9, %rcx
	testb	$8, %dl
	jne	.LBB5_22
# %bb.21:                               # %"$8.i"
                                        #   in Loop: Header=BB5_9 Depth=1
	subq	$32, %rsp
	callq	addu
	jmp	.LBB5_23
	.p2align	4, 0x90
.LBB5_19:                               # %"$6.i"
                                        #   in Loop: Header=BB5_9 Depth=1
	andq	$-9, %rdx
	subq	$32, %rsp
	callq	addu
	addq	$32, %rsp
	jmp	.LBB5_24
.LBB5_14:
	movq	%r15, %rax
.LBB5_25:                               # %"$25"
	movq	8(%rbx), %rcx
	movq	%rcx, env(%rip)
.LBB5_26:                               # %"$9"
	leaq	8(%rbp), %rsp
	popq	%rbx
	popq	%rdi
	popq	%rsi
	popq	%r14
	popq	%r15
	popq	%rbp
	retq
.LBB5_27:                               # %"$10"
	subq	$32, %rsp
	movq	%r14, %rcx
	callq	numErr
	int3
	.seh_handlerdata
	.text
	.seh_endproc
                                        # -- End function
	.def	 _inc;
	.scl	2;
	.type	32;
	.endef
	.globl	_inc                            # -- Begin function _inc
	.p2align	4, 0x90
_inc:                                   # @_inc
.seh_proc _inc
# %bb.0:                                # %"$1"
	pushq	%rbp
	.seh_pushreg %rbp
	pushq	%r15
	.seh_pushreg %r15
	pushq	%r14
	.seh_pushreg %r14
	pushq	%rsi
	.seh_pushreg %rsi
	pushq	%rdi
	.seh_pushreg %rdi
	pushq	%rbx
	.seh_pushreg %rbx
	pushq	%rax
	.seh_stackalloc 8
	movq	%rsp, %rbp
	.seh_setframe %rbp, 0
	.seh_endprologue
	movq	%rcx, %r15
	movq	8(%rcx), %rdi
	movq	(%rdi), %rsi
	testb	$6, %sil
	jne	.LBB6_4
# %bb.1:                                # %"$4"
	testb	$8, %sil
	jne	.LBB6_2
# %bb.3:                                # %"$6"
	subq	$32, %rsp
	movq	%rsi, %rcx
	callq	evList
	addq	$32, %rsp
	movq	%rax, %rsi
	jmp	.LBB6_4
.LBB6_2:                                # %"$7"
	movq	(%rsi), %rsi
.LBB6_4:                                # %"$3"
	leaq	SymTab+8(%rip), %rbx
	cmpq	%rbx, %rsi
	je	.LBB6_54
# %bb.5:                                # %"$8"
	testb	$6, %sil
	je	.LBB6_13
# %bb.6:                                # %"$11"
	testb	$8, %sil
	jne	.LBB6_7
# %bb.12:                               # %"$3.i"
	movl	$18, %edx
	movq	%rsi, %rcx
	leaq	8(%rbp), %rsp
	popq	%rbx
	popq	%rdi
	popq	%rsi
	popq	%r14
	popq	%r15
	popq	%rbp
	jmp	addu                            # TAILCALL
.LBB6_13:                               # %"$10"
	leaq	SymTab+8(%rip), %rbx
	cmpq	%rbx, %rsi
	jb	.LBB6_15
# %bb.14:                               # %"$10"
	leaq	SymTab+280(%rip), %rax
	cmpq	%rax, %rsi
	jbe	.LBB6_55
.LBB6_15:                               # %"$15"
	movq	env(%rip), %rcx
	movl	$16, %eax
	callq	___chkstk_ms
	subq	%rax, %rsp
	movq	%rsp, %r14
	movq	%rsi, (%r14)
	movq	%r14, %rax
	orq	$8, %rax
	movq	%rcx, (%rax)
	movq	%r14, env(%rip)
	testb	$8, %sil
	je	.LBB6_25
# %bb.16:                               # %"$17"
	movq	-8(%rsi), %rax
	testb	$8, %al
	je	.LBB6_25
# %bb.17:                               # %"$18"
	testb	$6, %al
	je	.LBB6_19
# %bb.18:
	leaq	-8(%rsi), %rcx
	addq	%rax, %rax
	jae	.LBB6_23
	jmp	.LBB6_25
.LBB6_7:                                # %"$2.i"
	movq	%rsi, %rax
	andq	$-9, %rax
	testb	$2, %sil
	jne	.LBB6_8
# %bb.10:                               # %"$3.i.i"
	subq	$32, %rsp
	movl	$18, %edx
	movq	%rax, %rcx
	callq	sub1
	addq	$32, %rsp
	jmp	.LBB6_11
.LBB6_8:                                # %"$4.i.i"
	subq	$16, %rax
	jae	.LBB6_11
# %bb.9:                                # %"$8.i.i"
	xorq	$-16, %rax
	addq	$24, %rax
.LBB6_11:                               # %subu.exit.i
	movq	%rax, %rbx
	xorq	$8, %rbx
	cmpq	$2, %rax
	cmoveq	%rax, %rbx
	jmp	.LBB6_54
.LBB6_19:                               # %"$2.i19"
	andq	$-9, %rax
	.p2align	4, 0x90
.LBB6_20:                               # %"$4.i"
                                        # =>This Inner Loop Header: Depth=1
	movq	%rax, %rcx
	movq	8(%rax), %rax
	testb	$6, %al
	je	.LBB6_20
# %bb.21:
	addq	$8, %rcx
	addq	%rax, %rax
	jb	.LBB6_25
.LBB6_23:                               # %"$7.i"
	leaq	(%rax,%rax), %rdx
	movl	$2, %r8d
	shldq	$62, %rdx, %r8
	addq	%rax, %rax
	movq	%r8, (%rcx)
	jb	.LBB6_25
# %bb.24:                               # %"$9.i"
	subq	$32, %rsp
	movq	%r15, %rcx
	movq	%rsi, %rdx
	callq	db
	addq	$32, %rsp
.LBB6_25:                               # %"$19"
	movq	8(%rdi), %rax
	testb	$15, %al
	je	.LBB6_34
# %bb.26:                               # %"$20"
	movq	(%rsi), %r8
	cmpq	%rbx, %r8
	je	.LBB6_53
# %bb.27:                               # %"$24"
	testb	$6, %r8b
	je	.LBB6_56
# %bb.28:                               # %"$27"
	testb	$8, %r8b
	jne	.LBB6_29
# %bb.33:                               # %"$3.i28"
	subq	$32, %rsp
	movl	$18, %edx
	movq	%r8, %rcx
	callq	addu
	addq	$32, %rsp
	movq	%rax, %rbx
	movq	%rax, (%rsi)
	jmp	.LBB6_53
.LBB6_34:                               # %"$21"
	movq	(%rax), %rdx
	testb	$6, %dl
	jne	.LBB6_38
# %bb.35:                               # %"$29"
	testb	$8, %dl
	jne	.LBB6_36
# %bb.37:                               # %"$31"
	subq	$32, %rsp
	movq	%rdx, %rcx
	callq	evList
	addq	$32, %rsp
	movq	%rax, %rdx
	jmp	.LBB6_38
.LBB6_29:                               # %"$2.i23"
	movq	%r8, %rax
	andq	$-9, %rax
	testb	$2, %r8b
	jne	.LBB6_30
# %bb.32:                               # %"$3.i.i26"
	subq	$32, %rsp
	movl	$18, %edx
	movq	%rax, %rcx
	callq	sub1
	jmp	.LBB6_50
.LBB6_30:                               # %"$4.i.i24"
	subq	$16, %rax
	jae	.LBB6_51
# %bb.31:                               # %"$8.i.i25"
	xorq	$-16, %rax
	addq	$24, %rax
	jmp	.LBB6_51
.LBB6_36:                               # %"$32"
	movq	(%rdx), %rdx
.LBB6_38:                               # %"$28"
	movq	env(%rip), %rcx
	movl	$16, %eax
	callq	___chkstk_ms
	subq	%rax, %rsp
	movq	%rsp, %rbx
	movq	%rdx, (%rbx)
	movq	%rbx, %rax
	orq	$8, %rax
	movq	%rcx, (%rax)
	movq	%rbx, env(%rip)
	leaq	SymTab+8(%rip), %rbx
	cmpq	%rbx, %rdx
	je	.LBB6_53
# %bb.39:                               # %"$28"
	movq	(%rsi), %rax
	leaq	SymTab+8(%rip), %rcx
	cmpq	%rcx, %rax
	je	.LBB6_53
# %bb.40:                               # %"$36"
	testb	$6, %al
	je	.LBB6_57
# %bb.41:                               # %"$39"
	testb	$6, %dl
	je	.LBB6_58
# %bb.42:                               # %"$41"
	testb	$8, %al
	jne	.LBB6_47
# %bb.43:                               # %"$2.i33"
	testb	$8, %dl
	jne	.LBB6_46
# %bb.44:                               # %"$5.i"
	subq	$32, %rsp
	movq	%rax, %rcx
	callq	addu
	jmp	.LBB6_45
.LBB6_47:                               # %"$3.i34"
	andq	$-9, %rax
	testb	$8, %dl
	jne	.LBB6_49
# %bb.48:                               # %"$8.i"
	subq	$32, %rsp
	movq	%rax, %rcx
	callq	subu
	jmp	.LBB6_50
.LBB6_46:                               # %"$6.i"
	andq	$-9, %rdx
	subq	$32, %rsp
	movq	%rax, %rcx
	callq	subu
.LBB6_45:                               # %adds.exit
	addq	$32, %rsp
	movq	%rax, %rbx
	jmp	.LBB6_52
.LBB6_49:                               # %"$9.i35"
	andq	$-9, %rdx
	subq	$32, %rsp
	movq	%rax, %rcx
	callq	addu
.LBB6_50:                               # %"$10.i"
	addq	$32, %rsp
.LBB6_51:                               # %adds.exit
	movq	%rax, %rbx
	xorq	$8, %rbx
	cmpq	$2, %rax
	cmoveq	%rax, %rbx
.LBB6_52:                               # %adds.exit
	movq	%rbx, (%rsi)
.LBB6_53:                               # %"$22"
	movq	8(%r14), %rax
	movq	%rax, env(%rip)
.LBB6_54:                               # %"$2"
	movq	%rbx, %rax
	leaq	8(%rbp), %rsp
	popq	%rbx
	popq	%rdi
	popq	%rsi
	popq	%r14
	popq	%r15
	popq	%rbp
	retq
.LBB6_55:                               # %"$14"
	subq	$32, %rsp
	movq	%r15, %rcx
	movq	%rsi, %rdx
	callq	protErr
.LBB6_56:                               # %"$26"
	subq	$32, %rsp
	movq	%r15, %rcx
	movq	%r8, %rdx
	callq	numErr
.LBB6_57:                               # %"$38"
	subq	$32, %rsp
	movq	%r15, %rcx
	movq	%rax, %rdx
	callq	numErr
.LBB6_58:                               # %"$40"
	subq	$32, %rsp
	movq	%r15, %rcx
	callq	numErr
	int3
	.seh_handlerdata
	.text
	.seh_endproc
                                        # -- End function
	.def	 _dec;
	.scl	2;
	.type	32;
	.endef
	.globl	_dec                            # -- Begin function _dec
	.p2align	4, 0x90
_dec:                                   # @_dec
.seh_proc _dec
# %bb.0:                                # %"$1"
	pushq	%rbp
	.seh_pushreg %rbp
	pushq	%r15
	.seh_pushreg %r15
	pushq	%r14
	.seh_pushreg %r14
	pushq	%rsi
	.seh_pushreg %rsi
	pushq	%rdi
	.seh_pushreg %rdi
	pushq	%rbx
	.seh_pushreg %rbx
	pushq	%rax
	.seh_stackalloc 8
	movq	%rsp, %rbp
	.seh_setframe %rbp, 0
	.seh_endprologue
	movq	%rcx, %r14
	movq	8(%rcx), %rdi
	movq	(%rdi), %rsi
	testb	$6, %sil
	jne	.LBB7_4
# %bb.1:                                # %"$4"
	testb	$8, %sil
	jne	.LBB7_3
# %bb.2:                                # %"$6"
	subq	$32, %rsp
	movq	%rsi, %rcx
	callq	evList
	addq	$32, %rsp
	movq	%rax, %rsi
	jmp	.LBB7_4
.LBB7_3:                                # %"$7"
	movq	(%rsi), %rsi
.LBB7_4:                                # %"$3"
	leaq	SymTab+8(%rip), %rbx
	cmpq	%rbx, %rsi
	je	.LBB7_53
# %bb.5:                                # %"$8"
	testb	$6, %sil
	je	.LBB7_9
# %bb.6:                                # %"$11"
	testb	$8, %sil
	jne	.LBB7_15
# %bb.7:                                # %"$3.i"
	testb	$2, %sil
	jne	.LBB7_16
# %bb.8:                                # %"$3.i.i"
	movl	$18, %edx
	movq	%rsi, %rcx
	leaq	8(%rbp), %rsp
	popq	%rbx
	popq	%rdi
	popq	%rsi
	popq	%r14
	popq	%r15
	popq	%rbp
	jmp	sub1                            # TAILCALL
.LBB7_9:                                # %"$10"
	leaq	SymTab+8(%rip), %rbx
	cmpq	%rbx, %rsi
	jb	.LBB7_11
# %bb.10:                               # %"$10"
	leaq	SymTab+280(%rip), %rax
	cmpq	%rax, %rsi
	jbe	.LBB7_54
.LBB7_11:                               # %"$15"
	movq	env(%rip), %rcx
	movl	$16, %eax
	callq	___chkstk_ms
	subq	%rax, %rsp
	movq	%rsp, %r15
	movq	%rsi, (%r15)
	movq	%r15, %rax
	orq	$8, %rax
	movq	%rcx, (%rax)
	movq	%r15, env(%rip)
	testb	$8, %sil
	je	.LBB7_24
# %bb.12:                               # %"$17"
	movq	-8(%rsi), %rax
	testb	$8, %al
	je	.LBB7_24
# %bb.13:                               # %"$18"
	testb	$6, %al
	je	.LBB7_19
# %bb.14:
	leaq	-8(%rsi), %rcx
	addq	%rax, %rax
	jae	.LBB7_22
	jmp	.LBB7_24
.LBB7_15:                               # %"$2.i"
	andq	$-9, %rsi
	subq	$32, %rsp
	movl	$18, %edx
	movq	%rsi, %rcx
	callq	addu
	addq	$32, %rsp
	movq	%rax, %rbx
	xorq	$8, %rbx
	cmpq	$2, %rax
	cmoveq	%rax, %rbx
	jmp	.LBB7_53
.LBB7_16:                               # %"$4.i.i"
	subq	$16, %rsi
	jae	.LBB7_18
# %bb.17:                               # %"$8.i.i"
	xorq	$-16, %rsi
	addq	$24, %rsi
.LBB7_18:
	movq	%rsi, %rbx
	jmp	.LBB7_53
.LBB7_19:                               # %"$2.i19"
	andq	$-9, %rax
	.p2align	4, 0x90
.LBB7_20:                               # %"$4.i"
                                        # =>This Inner Loop Header: Depth=1
	movq	%rax, %rcx
	movq	8(%rax), %rax
	testb	$6, %al
	je	.LBB7_20
# %bb.21:
	addq	$8, %rcx
	addq	%rax, %rax
	jb	.LBB7_24
.LBB7_22:                               # %"$7.i"
	leaq	(%rax,%rax), %rdx
	movl	$2, %r8d
	shldq	$62, %rdx, %r8
	addq	%rax, %rax
	movq	%r8, (%rcx)
	jb	.LBB7_24
# %bb.23:                               # %"$9.i"
	subq	$32, %rsp
	movq	%r14, %rcx
	movq	%rsi, %rdx
	callq	db
	addq	$32, %rsp
.LBB7_24:                               # %"$19"
	movq	8(%rdi), %rax
	testb	$15, %al
	je	.LBB7_30
# %bb.25:                               # %"$20"
	movq	(%rsi), %rdi
	cmpq	%rbx, %rdi
	je	.LBB7_52
# %bb.26:                               # %"$24"
	testb	$6, %dil
	je	.LBB7_55
# %bb.27:                               # %"$27"
	testb	$8, %dil
	jne	.LBB7_33
# %bb.28:                               # %"$3.i24"
	testb	$2, %dil
	jne	.LBB7_35
# %bb.29:                               # %"$3.i.i27"
	subq	$32, %rsp
	movl	$18, %edx
	movq	%rdi, %rcx
	callq	sub1
	addq	$32, %rsp
	movq	%rax, %rdi
	jmp	.LBB7_34
.LBB7_30:                               # %"$21"
	movq	(%rax), %rdx
	testb	$6, %dl
	jne	.LBB7_38
# %bb.31:                               # %"$29"
	testb	$8, %dl
	jne	.LBB7_37
# %bb.32:                               # %"$31"
	subq	$32, %rsp
	movq	%rdx, %rcx
	callq	evList
	addq	$32, %rsp
	movq	%rax, %rdx
	jmp	.LBB7_38
.LBB7_33:                               # %"$2.i22"
	andq	$-9, %rdi
	subq	$32, %rsp
	movl	$18, %edx
	movq	%rdi, %rcx
	callq	addu
	addq	$32, %rsp
	movq	%rax, %rdi
	xorq	$8, %rdi
	cmpq	$2, %rax
	cmoveq	%rax, %rdi
.LBB7_34:                               # %decs.exit29
	movq	%rdi, (%rsi)
	movq	%rdi, %rbx
	jmp	.LBB7_52
.LBB7_35:                               # %"$4.i.i25"
	subq	$16, %rdi
	jae	.LBB7_34
# %bb.36:                               # %"$8.i.i26"
	xorq	$-16, %rdi
	addq	$24, %rdi
	jmp	.LBB7_34
.LBB7_37:                               # %"$32"
	movq	(%rdx), %rdx
.LBB7_38:                               # %"$28"
	movq	env(%rip), %rcx
	movl	$16, %eax
	callq	___chkstk_ms
	subq	%rax, %rsp
	movq	%rsp, %rbx
	movq	%rdx, (%rbx)
	movq	%rbx, %rax
	orq	$8, %rax
	movq	%rcx, (%rax)
	movq	%rbx, env(%rip)
	leaq	SymTab+8(%rip), %rbx
	cmpq	%rbx, %rdx
	je	.LBB7_52
# %bb.39:                               # %"$28"
	movq	(%rsi), %rax
	leaq	SymTab+8(%rip), %rcx
	cmpq	%rcx, %rax
	je	.LBB7_52
# %bb.40:                               # %"$36"
	testb	$6, %al
	je	.LBB7_56
# %bb.41:                               # %"$39"
	testb	$6, %dl
	je	.LBB7_57
# %bb.42:                               # %"$41"
	testb	$8, %al
	jne	.LBB7_45
# %bb.43:                               # %"$2.i32"
	testb	$8, %dl
	jne	.LBB7_47
# %bb.44:                               # %"$5.i"
	subq	$32, %rsp
	movq	%rax, %rcx
	callq	subu
	jmp	.LBB7_48
.LBB7_45:                               # %"$3.i33"
	andq	$-9, %rax
	testb	$8, %dl
	jne	.LBB7_49
# %bb.46:                               # %"$8.i"
	subq	$32, %rsp
	movq	%rax, %rcx
	callq	addu
	jmp	.LBB7_50
.LBB7_47:                               # %"$6.i"
	andq	$-9, %rdx
	subq	$32, %rsp
	movq	%rax, %rcx
	callq	addu
.LBB7_48:                               # %subs.exit
	addq	$32, %rsp
	movq	%rax, %rbx
	jmp	.LBB7_51
.LBB7_49:                               # %"$9.i34"
	andq	$-9, %rdx
	subq	$32, %rsp
	movq	%rax, %rcx
	callq	subu
.LBB7_50:                               # %"$10.i"
	addq	$32, %rsp
	movq	%rax, %rbx
	xorq	$8, %rbx
	cmpq	$2, %rax
	cmoveq	%rax, %rbx
.LBB7_51:                               # %subs.exit
	movq	%rbx, (%rsi)
.LBB7_52:                               # %"$22"
	movq	8(%r15), %rax
	movq	%rax, env(%rip)
.LBB7_53:                               # %"$2"
	movq	%rbx, %rax
	leaq	8(%rbp), %rsp
	popq	%rbx
	popq	%rdi
	popq	%rsi
	popq	%r14
	popq	%r15
	popq	%rbp
	retq
.LBB7_54:                               # %"$14"
	subq	$32, %rsp
	movq	%r14, %rcx
	movq	%rsi, %rdx
	callq	protErr
.LBB7_55:                               # %"$26"
	subq	$32, %rsp
	movq	%r14, %rcx
	movq	%rdi, %rdx
	callq	numErr
.LBB7_56:                               # %"$38"
	subq	$32, %rsp
	movq	%r14, %rcx
	movq	%rax, %rdx
	callq	numErr
.LBB7_57:                               # %"$40"
	subq	$32, %rsp
	movq	%r14, %rcx
	callq	numErr
	int3
	.seh_handlerdata
	.text
	.seh_endproc
                                        # -- End function
	.def	 _mul;
	.scl	2;
	.type	32;
	.endef
	.globl	_mul                            # -- Begin function _mul
	.p2align	4, 0x90
_mul:                                   # @_mul
.seh_proc _mul
# %bb.0:                                # %"$1"
	pushq	%rbp
	.seh_pushreg %rbp
	pushq	%r15
	.seh_pushreg %r15
	pushq	%r14
	.seh_pushreg %r14
	pushq	%r12
	.seh_pushreg %r12
	pushq	%rsi
	.seh_pushreg %rsi
	pushq	%rdi
	.seh_pushreg %rdi
	pushq	%rbx
	.seh_pushreg %rbx
	movq	%rsp, %rbp
	.seh_setframe %rbp, 0
	.seh_endprologue
	movq	%rcx, %r14
	movq	8(%rcx), %rdi
	movq	(%rdi), %rsi
	testb	$6, %sil
	jne	.LBB8_4
# %bb.1:                                # %"$3"
	testb	$8, %sil
	jne	.LBB8_2
# %bb.3:                                # %"$5"
	subq	$32, %rsp
	movq	%rsi, %rcx
	callq	evList
	addq	$32, %rsp
	movq	%rax, %rsi
	jmp	.LBB8_4
.LBB8_2:                                # %"$6"
	movq	(%rsi), %rsi
.LBB8_4:                                # %"$2"
	leaq	SymTab+8(%rip), %rax
	cmpq	%rax, %rsi
	je	.LBB8_14
# %bb.5:                                # %"$8"
	movq	env(%rip), %rcx
	movl	$16, %eax
	callq	___chkstk_ms
	subq	%rax, %rsp
	movq	%rsp, %r15
	movq	$10, (%r15)
	movq	%r15, %rax
	orq	$8, %rax
	movq	%rcx, (%rax)
	movq	%r15, env(%rip)
	testb	$6, %sil
	je	.LBB8_24
# %bb.6:                                # %"$11"
	movl	%esi, %r12d
	andl	$8, %r12d
	shrl	$3, %r12d
	andq	$-9, %rsi
	movl	$16, %eax
	callq	___chkstk_ms
	subq	%rax, %rsp
	movq	%rsp, %rbx
	movq	%rsi, (%rbx)
	movq	%r15, 8(%rbx)
	movq	%rbx, env(%rip)
	movq	8(%rdi), %rdi
	testb	$15, %dil
	je	.LBB8_7
# %bb.11:                               # %"$15"
	testb	$1, %r12b
	je	.LBB8_13
.LBB8_12:                               # %"$16"
	movq	%rsi, %rax
	xorq	$8, %rax
	cmpq	$2, %rsi
	cmovneq	%rax, %rsi
	jmp	.LBB8_13
.LBB8_7:
	leaq	SymTab+8(%rip), %rsi
	jmp	.LBB8_8
	.p2align	4, 0x90
.LBB8_22:                               # %"$34"
                                        #   in Loop: Header=BB8_8 Depth=1
	movq	%rdx, (%r15)
	movq	(%rbx), %rcx
	subq	$32, %rsp
	callq	mulu
	addq	$32, %rsp
	movq	%rax, (%rbx)
	movq	8(%rdi), %rdi
	testb	$15, %dil
	jne	.LBB8_23
.LBB8_8:                                # %"$13"
                                        # =>This Inner Loop Header: Depth=1
	movq	(%rdi), %rdx
	testb	$6, %dl
	jne	.LBB8_16
# %bb.9:                                # %"$23"
                                        #   in Loop: Header=BB8_8 Depth=1
	testb	$8, %dl
	jne	.LBB8_10
# %bb.15:                               # %"$25"
                                        #   in Loop: Header=BB8_8 Depth=1
	subq	$32, %rsp
	movq	%rdx, %rcx
	callq	evList
	addq	$32, %rsp
	movq	%rax, %rdx
	jmp	.LBB8_16
.LBB8_10:                               # %"$26"
                                        #   in Loop: Header=BB8_8 Depth=1
	movq	(%rdx), %rdx
	.p2align	4, 0x90
.LBB8_16:                               # %"$22"
                                        #   in Loop: Header=BB8_8 Depth=1
	cmpq	%rsi, %rdx
	je	.LBB8_13
# %bb.17:                               # %"$27"
                                        #   in Loop: Header=BB8_8 Depth=1
	cmpq	$2, %rdx
	je	.LBB8_18
# %bb.19:                               # %"$29"
                                        #   in Loop: Header=BB8_8 Depth=1
	testb	$6, %dl
	je	.LBB8_25
# %bb.20:                               # %"$32"
                                        #   in Loop: Header=BB8_8 Depth=1
	testb	$8, %dl
	je	.LBB8_22
# %bb.21:                               # %"$33"
                                        #   in Loop: Header=BB8_8 Depth=1
	xorb	$1, %r12b
	andq	$-9, %rdx
	jmp	.LBB8_22
.LBB8_18:
	movl	$2, %esi
	jmp	.LBB8_13
.LBB8_23:
	movq	%rax, %rsi
	testb	$1, %r12b
	jne	.LBB8_12
.LBB8_13:                               # %"$14"
	movq	8(%r15), %rax
	movq	%rax, env(%rip)
	movq	%rsi, %rax
.LBB8_14:                               # %"$9"
	movq	%rbp, %rsp
	popq	%rbx
	popq	%rdi
	popq	%rsi
	popq	%r12
	popq	%r14
	popq	%r15
	popq	%rbp
	retq
.LBB8_25:                               # %"$31"
	subq	$32, %rsp
	movq	%r14, %rcx
	callq	numErr
.LBB8_24:                               # %"$10"
	subq	$32, %rsp
	movq	%r14, %rcx
	movq	%rsi, %rdx
	callq	numErr
	int3
	.seh_handlerdata
	.text
	.seh_endproc
                                        # -- End function
	.def	 _mulDiv;
	.scl	2;
	.type	32;
	.endef
	.globl	_mulDiv                         # -- Begin function _mulDiv
	.p2align	4, 0x90
_mulDiv:                                # @_mulDiv
.seh_proc _mulDiv
# %bb.0:                                # %"$1"
	pushq	%rbp
	.seh_pushreg %rbp
	pushq	%r15
	.seh_pushreg %r15
	pushq	%r14
	.seh_pushreg %r14
	pushq	%r13
	.seh_pushreg %r13
	pushq	%r12
	.seh_pushreg %r12
	pushq	%rsi
	.seh_pushreg %rsi
	pushq	%rdi
	.seh_pushreg %rdi
	pushq	%rbx
	.seh_pushreg %rbx
	pushq	%rax
	.seh_stackalloc 8
	movq	%rsp, %rbp
	.seh_setframe %rbp, 0
	.seh_endprologue
	movq	%rcx, %r14
	movq	8(%rcx), %rdi
	movq	(%rdi), %rdx
	testb	$6, %dl
	jne	.LBB9_4
# %bb.1:                                # %"$3"
	testb	$8, %dl
	jne	.LBB9_2
# %bb.3:                                # %"$5"
	subq	$32, %rsp
	movq	%rdx, %rcx
	callq	evList
	addq	$32, %rsp
	movq	%rax, %rdx
	jmp	.LBB9_4
.LBB9_2:                                # %"$6"
	movq	(%rdx), %rdx
.LBB9_4:                                # %"$2"
	leaq	SymTab+8(%rip), %r13
	cmpq	%r13, %rdx
	je	.LBB9_26
# %bb.5:                                # %"$8"
	movq	env(%rip), %rcx
	movl	$16, %eax
	callq	___chkstk_ms
	subq	%rax, %rsp
	movq	%rsp, %r15
	movq	$10, (%r15)
	movq	%r15, %rax
	orq	$8, %rax
	movq	%rcx, (%rax)
	movq	%r15, env(%rip)
	testb	$6, %dl
	je	.LBB9_27
# %bb.6:                                # %"$11"
	movl	%edx, %r12d
	andl	$8, %r12d
	shrl	$3, %r12d
	andq	$-9, %rdx
	movl	$16, %eax
	callq	___chkstk_ms
	subq	%rax, %rsp
	movq	%rsp, %rsi
	movq	%rdx, (%rsi)
	movq	%r15, 8(%rsi)
	movq	%rsi, env(%rip)
	movq	8(%rdi), %rdi
	leaq	SymTab+8(%rip), %r13
	.p2align	4, 0x90
.LBB9_7:                                # %"$12"
                                        # =>This Inner Loop Header: Depth=1
	movq	(%rdi), %rbx
	testb	$6, %bl
	jne	.LBB9_11
# %bb.8:                                # %"$14"
                                        #   in Loop: Header=BB9_7 Depth=1
	testb	$8, %bl
	jne	.LBB9_9
# %bb.10:                               # %"$16"
                                        #   in Loop: Header=BB9_7 Depth=1
	subq	$32, %rsp
	movq	%rbx, %rcx
	callq	evList
	addq	$32, %rsp
	movq	%rax, %rbx
	.p2align	4, 0x90
.LBB9_11:                               # %"$13"
                                        #   in Loop: Header=BB9_7 Depth=1
	cmpq	%r13, %rbx
	je	.LBB9_25
.LBB9_12:                               # %"$18"
                                        #   in Loop: Header=BB9_7 Depth=1
	testb	$6, %bl
	je	.LBB9_28
# %bb.13:                               # %"$22"
                                        #   in Loop: Header=BB9_7 Depth=1
	testb	$8, %bl
	je	.LBB9_15
# %bb.14:                               # %"$23"
                                        #   in Loop: Header=BB9_7 Depth=1
	xorb	$1, %r12b
	andq	$-9, %rbx
.LBB9_15:                               # %"$24"
                                        #   in Loop: Header=BB9_7 Depth=1
	movq	%rbx, (%r15)
	movq	8(%rdi), %rdi
	testb	$15, %dil
	jne	.LBB9_16
# %bb.23:                               # %"$25"
                                        #   in Loop: Header=BB9_7 Depth=1
	cmpq	$2, %rbx
	je	.LBB9_24
# %bb.30:                               # %"$35"
                                        #   in Loop: Header=BB9_7 Depth=1
	movq	(%rsi), %rcx
	subq	$32, %rsp
	movq	%rbx, %rdx
	callq	mulu
	addq	$32, %rsp
	movq	%rax, (%rsi)
	jmp	.LBB9_7
.LBB9_9:                                # %"$17"
                                        #   in Loop: Header=BB9_7 Depth=1
	movq	(%rbx), %rbx
	cmpq	%r13, %rbx
	jne	.LBB9_12
	jmp	.LBB9_25
.LBB9_16:                               # %"$26"
	subq	$32, %rsp
	cmpq	$2, %rbx
	je	.LBB9_29
# %bb.17:                               # %"$28"
	movq	%rbx, %rcx
	callq	shru
	addq	$32, %rsp
	movq	%rax, %rdx
	movq	env(%rip), %rcx
	movl	$16, %eax
	callq	___chkstk_ms
	subq	%rax, %rsp
	movq	%rsp, %rdi
	movq	%rdx, (%rdi)
	movq	%rdi, %rax
	orq	$8, %rax
	movq	%rcx, (%rax)
	movq	%rdi, env(%rip)
	movq	(%rsi), %rcx
	subq	$32, %rsp
	callq	addu
	addq	$32, %rsp
	movq	%rax, (%rsi)
	testb	$4, %al
	jne	.LBB9_18
# %bb.19:                               # %"$3.i"
	movl	$2, %r13d
	testb	$4, %bl
	jne	.LBB9_21
# %bb.20:                               # %"$5.i"
	shrq	$4, %rax
	shrq	$4, %rbx
	xorl	%edx, %edx
	divq	%rbx
	movq	%rax, %r13
	shlq	$4, %r13
	orq	$2, %r13
	jmp	.LBB9_21
.LBB9_24:
	movl	$2, %r13d
	jmp	.LBB9_25
.LBB9_18:                               # %"$4.i"
	subq	$32, %rsp
	movq	%rax, %rcx
	movq	%rbx, %rdx
	xorl	%r8d, %r8d
	callq	div1
	addq	$32, %rsp
	movq	%rax, %r13
.LBB9_21:                               # %divu.exit
	testb	$1, %r12b
	je	.LBB9_25
# %bb.22:                               # %"$29"
	movq	%r13, %rax
	xorq	$8, %rax
	cmpq	$2, %r13
	cmovneq	%rax, %r13
.LBB9_25:                               # %"$19"
	movq	8(%r15), %rax
	movq	%rax, env(%rip)
.LBB9_26:                               # %"$9"
	movq	%r13, %rax
	leaq	8(%rbp), %rsp
	popq	%rbx
	popq	%rdi
	popq	%rsi
	popq	%r12
	popq	%r13
	popq	%r14
	popq	%r15
	popq	%rbp
	retq
.LBB9_28:                               # %"$21"
	subq	$32, %rsp
	movq	%r14, %rcx
	movq	%rbx, %rdx
	callq	numErr
.LBB9_27:                               # %"$10"
	subq	$32, %rsp
	movq	%r14, %rcx
	callq	numErr
.LBB9_29:                               # %"$27"
	movq	%r14, %rcx
	callq	divErr
	int3
	.seh_handlerdata
	.text
	.seh_endproc
                                        # -- End function
	.def	 _div;
	.scl	2;
	.type	32;
	.endef
	.globl	_div                            # -- Begin function _div
	.p2align	4, 0x90
_div:                                   # @_div
.seh_proc _div
# %bb.0:                                # %"$1"
	pushq	%rbp
	.seh_pushreg %rbp
	pushq	%r15
	.seh_pushreg %r15
	pushq	%r14
	.seh_pushreg %r14
	pushq	%r13
	.seh_pushreg %r13
	pushq	%r12
	.seh_pushreg %r12
	pushq	%rsi
	.seh_pushreg %rsi
	pushq	%rdi
	.seh_pushreg %rdi
	pushq	%rbx
	.seh_pushreg %rbx
	pushq	%rax
	.seh_stackalloc 8
	movq	%rsp, %rbp
	.seh_setframe %rbp, 0
	.seh_endprologue
	movq	%rcx, %r14
	movq	8(%rcx), %rsi
	movq	(%rsi), %rdx
	testb	$6, %dl
	jne	.LBB10_4
# %bb.1:                                # %"$3"
	testb	$8, %dl
	jne	.LBB10_2
# %bb.3:                                # %"$5"
	subq	$32, %rsp
	movq	%rdx, %rcx
	callq	evList
	addq	$32, %rsp
	movq	%rax, %rdx
	jmp	.LBB10_4
.LBB10_2:                               # %"$6"
	movq	(%rdx), %rdx
.LBB10_4:                               # %"$2"
	leaq	SymTab+8(%rip), %r13
	cmpq	%r13, %rdx
	je	.LBB10_26
# %bb.5:                                # %"$8"
	movq	env(%rip), %rcx
	movl	$16, %eax
	callq	___chkstk_ms
	subq	%rax, %rsp
	movq	%rsp, %r15
	movq	$10, (%r15)
	movq	%r15, %rax
	orq	$8, %rax
	movq	%rcx, (%rax)
	movq	%r15, env(%rip)
	testb	$6, %dl
	je	.LBB10_27
# %bb.6:                                # %"$11"
	movl	%edx, %r12d
	andl	$8, %r12d
	shrl	$3, %r12d
	andq	$-9, %rdx
	movl	$16, %eax
	callq	___chkstk_ms
	subq	%rax, %rsp
	movq	%rsp, %rbx
	movq	%rdx, (%rbx)
	movq	%r15, 8(%rbx)
	movq	%rbx, env(%rip)
	movq	8(%rsi), %rdi
	testb	$15, %dil
	je	.LBB10_7
.LBB10_11:                              # %"$15"
	testb	$1, %r12b
	je	.LBB10_12
# %bb.24:                               # %"$16"
	movq	%rdx, %r13
	xorq	$8, %r13
	cmpq	$2, %rdx
	cmoveq	%rdx, %r13
	jmp	.LBB10_25
.LBB10_12:
	movq	%rdx, %r13
.LBB10_25:                              # %"$14"
	movq	8(%r15), %rax
	movq	%rax, env(%rip)
.LBB10_26:                              # %"$9"
	movq	%r13, %rax
	leaq	8(%rbp), %rsp
	popq	%rbx
	popq	%rdi
	popq	%rsi
	popq	%r12
	popq	%r13
	popq	%r14
	popq	%r15
	popq	%rbp
	retq
.LBB10_7:
	leaq	SymTab+8(%rip), %r13
	jmp	.LBB10_8
	.p2align	4, 0x90
.LBB10_20:                              # %"$4.i"
                                        #   in Loop: Header=BB10_8 Depth=1
	subq	$32, %rsp
	movq	%rsi, %rdx
	xorl	%r8d, %r8d
	callq	div1
	addq	$32, %rsp
	movq	%rax, %rdx
.LBB10_23:                              # %divu.exit
                                        #   in Loop: Header=BB10_8 Depth=1
	movq	%rdx, (%rbx)
	movq	8(%rdi), %rdi
	testb	$15, %dil
	jne	.LBB10_11
.LBB10_8:                               # %"$13"
                                        # =>This Inner Loop Header: Depth=1
	movq	(%rdi), %rsi
	testb	$6, %sil
	jne	.LBB10_14
# %bb.9:                                # %"$23"
                                        #   in Loop: Header=BB10_8 Depth=1
	testb	$8, %sil
	jne	.LBB10_10
# %bb.13:                               # %"$25"
                                        #   in Loop: Header=BB10_8 Depth=1
	subq	$32, %rsp
	movq	%rsi, %rcx
	callq	evList
	addq	$32, %rsp
	movq	%rax, %rsi
	jmp	.LBB10_14
.LBB10_10:                              # %"$26"
                                        #   in Loop: Header=BB10_8 Depth=1
	movq	(%rsi), %rsi
	.p2align	4, 0x90
.LBB10_14:                              # %"$22"
                                        #   in Loop: Header=BB10_8 Depth=1
	cmpq	%r13, %rsi
	je	.LBB10_25
# %bb.15:                               # %"$27"
                                        #   in Loop: Header=BB10_8 Depth=1
	cmpq	$2, %rsi
	je	.LBB10_28
# %bb.16:                               # %"$30"
                                        #   in Loop: Header=BB10_8 Depth=1
	testb	$6, %sil
	je	.LBB10_29
# %bb.17:                               # %"$32"
                                        #   in Loop: Header=BB10_8 Depth=1
	testb	$8, %sil
	je	.LBB10_19
# %bb.18:                               # %"$33"
                                        #   in Loop: Header=BB10_8 Depth=1
	xorb	$1, %r12b
	andq	$-9, %rsi
.LBB10_19:                              # %"$34"
                                        #   in Loop: Header=BB10_8 Depth=1
	movq	%rsi, (%r15)
	movq	(%rbx), %rcx
	testb	$4, %cl
	jne	.LBB10_20
# %bb.21:                               # %"$3.i"
                                        #   in Loop: Header=BB10_8 Depth=1
	movl	$2, %edx
	testb	$4, %sil
	jne	.LBB10_23
# %bb.22:                               # %"$5.i"
                                        #   in Loop: Header=BB10_8 Depth=1
	shrq	$4, %rcx
	shrq	$4, %rsi
	movq	%rcx, %rax
	xorl	%edx, %edx
	divq	%rsi
	movq	%rax, %rdx
	shlq	$4, %rdx
	orq	$2, %rdx
	jmp	.LBB10_23
.LBB10_28:                              # %"$29"
	subq	$32, %rsp
	movq	%r14, %rcx
	callq	divErr
.LBB10_29:                              # %"$31"
	subq	$32, %rsp
	movq	%r14, %rcx
	movq	%rsi, %rdx
	callq	numErr
.LBB10_27:                              # %"$10"
	subq	$32, %rsp
	movq	%r14, %rcx
	callq	numErr
	int3
	.seh_handlerdata
	.text
	.seh_endproc
                                        # -- End function
	.def	 _rem;
	.scl	2;
	.type	32;
	.endef
	.globl	_rem                            # -- Begin function _rem
	.p2align	4, 0x90
_rem:                                   # @_rem
.seh_proc _rem
# %bb.0:                                # %"$1"
	pushq	%rbp
	.seh_pushreg %rbp
	pushq	%r15
	.seh_pushreg %r15
	pushq	%r14
	.seh_pushreg %r14
	pushq	%r13
	.seh_pushreg %r13
	pushq	%r12
	.seh_pushreg %r12
	pushq	%rsi
	.seh_pushreg %rsi
	pushq	%rdi
	.seh_pushreg %rdi
	pushq	%rbx
	.seh_pushreg %rbx
	pushq	%rax
	.seh_stackalloc 8
	movq	%rsp, %rbp
	.seh_setframe %rbp, 0
	.seh_endprologue
	movq	%rcx, %r14
	movq	8(%rcx), %rsi
	movq	(%rsi), %r15
	testb	$6, %r15b
	jne	.LBB11_4
# %bb.1:                                # %"$3"
	testb	$8, %r15b
	jne	.LBB11_2
# %bb.3:                                # %"$5"
	subq	$32, %rsp
	movq	%r15, %rcx
	callq	evList
	addq	$32, %rsp
	movq	%rax, %r15
	jmp	.LBB11_4
.LBB11_2:                               # %"$6"
	movq	(%r15), %r15
.LBB11_4:                               # %"$2"
	leaq	SymTab+8(%rip), %r13
	cmpq	%r13, %r15
	je	.LBB11_24
# %bb.5:                                # %"$8"
	movq	env(%rip), %rcx
	movl	$16, %eax
	callq	___chkstk_ms
	subq	%rax, %rsp
	movq	%rsp, %r12
	movq	$10, (%r12)
	movq	%r12, %rax
	orq	$8, %rax
	movq	%rcx, (%rax)
	movq	%r12, env(%rip)
	testb	$6, %r15b
	je	.LBB11_25
# %bb.6:                                # %"$11"
	movq	%r15, %rcx
	andq	$-9, %rcx
	movl	$16, %eax
	callq	___chkstk_ms
	subq	%rax, %rsp
	movq	%rsp, %rdi
	movq	%rcx, (%rdi)
	movq	%r12, 8(%rdi)
	movq	%rdi, env(%rip)
	movq	8(%rsi), %rbx
	testb	$15, %bl
	je	.LBB11_7
.LBB11_11:                              # %"$15"
	testb	$8, %r15b
	jne	.LBB11_22
# %bb.12:
	movq	%rcx, %r13
	jmp	.LBB11_23
.LBB11_22:                              # %"$16"
	movq	%rcx, %r13
	xorq	$8, %r13
	cmpq	$2, %rcx
	cmoveq	%rcx, %r13
.LBB11_23:                              # %"$14"
	movq	8(%r12), %rax
	movq	%rax, env(%rip)
.LBB11_24:                              # %"$9"
	movq	%r13, %rax
	leaq	8(%rbp), %rsp
	popq	%rbx
	popq	%rdi
	popq	%rsi
	popq	%r12
	popq	%r13
	popq	%r14
	popq	%r15
	popq	%rbp
	retq
.LBB11_7:
	leaq	SymTab+8(%rip), %r13
	jmp	.LBB11_8
	.p2align	4, 0x90
.LBB11_18:                              # %"$4.i"
                                        #   in Loop: Header=BB11_8 Depth=1
	subq	$32, %rsp
	movb	$1, %r8b
	callq	div1
	addq	$32, %rsp
	movq	%rax, %rcx
.LBB11_21:                              # %remu.exit
                                        #   in Loop: Header=BB11_8 Depth=1
	movq	%rcx, (%rdi)
	movq	8(%rbx), %rbx
	testb	$15, %bl
	jne	.LBB11_11
.LBB11_8:                               # %"$13"
                                        # =>This Inner Loop Header: Depth=1
	movq	(%rbx), %rsi
	testb	$6, %sil
	jne	.LBB11_14
# %bb.9:                                # %"$23"
                                        #   in Loop: Header=BB11_8 Depth=1
	testb	$8, %sil
	jne	.LBB11_10
# %bb.13:                               # %"$25"
                                        #   in Loop: Header=BB11_8 Depth=1
	subq	$32, %rsp
	movq	%rsi, %rcx
	callq	evList
	addq	$32, %rsp
	movq	%rax, %rsi
	jmp	.LBB11_14
.LBB11_10:                              # %"$26"
                                        #   in Loop: Header=BB11_8 Depth=1
	movq	(%rsi), %rsi
	.p2align	4, 0x90
.LBB11_14:                              # %"$22"
                                        #   in Loop: Header=BB11_8 Depth=1
	cmpq	%r13, %rsi
	je	.LBB11_23
# %bb.15:                               # %"$27"
                                        #   in Loop: Header=BB11_8 Depth=1
	cmpq	$2, %rsi
	je	.LBB11_26
# %bb.16:                               # %"$30"
                                        #   in Loop: Header=BB11_8 Depth=1
	testb	$6, %sil
	je	.LBB11_27
# %bb.17:                               # %"$32"
                                        #   in Loop: Header=BB11_8 Depth=1
	movq	(%rdi), %rcx
	movq	%rsi, %rdx
	andq	$-9, %rdx
	movq	%rdx, (%r12)
	testb	$4, %cl
	jne	.LBB11_18
# %bb.19:                               # %"$3.i"
                                        #   in Loop: Header=BB11_8 Depth=1
	testb	$4, %sil
	jne	.LBB11_21
# %bb.20:                               # %"$5.i"
                                        #   in Loop: Header=BB11_8 Depth=1
	shrq	$4, %rcx
	shrq	$4, %rsi
	movq	%rcx, %rax
	xorl	%edx, %edx
	divq	%rsi
	movq	%rdx, %rcx
	shlq	$4, %rcx
	orq	$2, %rcx
	jmp	.LBB11_21
.LBB11_26:                              # %"$29"
	subq	$32, %rsp
	movq	%r14, %rcx
	callq	divErr
.LBB11_27:                              # %"$31"
	subq	$32, %rsp
	movq	%r14, %rcx
	movq	%rsi, %rdx
	callq	numErr
.LBB11_25:                              # %"$10"
	subq	$32, %rsp
	movq	%r14, %rcx
	movq	%r15, %rdx
	callq	numErr
	int3
	.seh_handlerdata
	.text
	.seh_endproc
                                        # -- End function
	.def	 _shr;
	.scl	2;
	.type	32;
	.endef
	.globl	_shr                            # -- Begin function _shr
	.p2align	4, 0x90
_shr:                                   # @_shr
.seh_proc _shr
# %bb.0:                                # %"$1"
	pushq	%rbp
	.seh_pushreg %rbp
	pushq	%rsi
	.seh_pushreg %rsi
	pushq	%rdi
	.seh_pushreg %rdi
	pushq	%rbx
	.seh_pushreg %rbx
	pushq	%rax
	.seh_stackalloc 8
	movq	%rsp, %rbp
	.seh_setframe %rbp, 0
	.seh_endprologue
	movq	%rcx, %rdi
	movq	8(%rcx), %rsi
	movq	(%rsi), %rax
	testb	$6, %al
	jne	.LBB12_4
# %bb.1:                                # %"$3.i"
	testb	$8, %al
	jne	.LBB12_2
# %bb.3:                                # %"$5.i"
	subq	$32, %rsp
	movq	%rax, %rcx
	callq	evList
	addq	$32, %rsp
	jmp	.LBB12_4
.LBB12_2:                               # %"$6.i"
	movq	(%rax), %rax
.LBB12_4:                               # %"$2.i"
	testb	$2, %al
	je	.LBB12_28
# %bb.5:                                # %evCnt.exit
	movq	%rax, %rcx
	shrq	$4, %rcx
	movq	%rcx, %rbx
	negq	%rbx
	testb	$8, %al
	cmoveq	%rcx, %rbx
	movq	8(%rsi), %rax
	movq	(%rax), %rsi
	testb	$6, %sil
	jne	.LBB12_9
# %bb.6:                                # %"$3"
	testb	$8, %sil
	jne	.LBB12_7
# %bb.8:                                # %"$5"
	subq	$32, %rsp
	movq	%rsi, %rcx
	callq	evList
	addq	$32, %rsp
	movq	%rax, %rsi
.LBB12_9:                               # %"$2"
	testq	%rbx, %rbx
	je	.LBB12_10
.LBB12_11:                              # %"$8"
	leaq	SymTab+8(%rip), %rax
	cmpq	%rax, %rsi
	je	.LBB12_27
# %bb.12:                               # %"$9"
	testb	$6, %sil
	je	.LBB12_29
# %bb.13:                               # %"$7"
	movl	$2, %eax
	cmpq	$2, %rsi
	je	.LBB12_27
# %bb.14:                               # %"$13"
	movq	%rsi, %rdx
	andq	$-9, %rdx
	movq	env(%rip), %rcx
	movl	$16, %eax
	callq	___chkstk_ms
	subq	%rax, %rsp
	movq	%rsp, %rdi
	movq	%rdx, (%rdi)
	movq	%rdi, %rax
	orq	$8, %rax
	movq	%rcx, (%rax)
	movq	%rdi, env(%rip)
	testq	%rbx, %rbx
	jle	.LBB12_15
	.p2align	4, 0x90
.LBB12_18:                              # %"$18"
                                        # =>This Inner Loop Header: Depth=1
	cmpq	$64, %rbx
	jb	.LBB12_21
# %bb.19:                               # %"$18"
                                        #   in Loop: Header=BB12_18 Depth=1
	movl	%edx, %eax
	andl	$4, %eax
	testq	%rax, %rax
	je	.LBB12_21
# %bb.20:                               # %"$21"
                                        #   in Loop: Header=BB12_18 Depth=1
	movq	4(%rdx), %rdx
	addq	$-64, %rbx
	jne	.LBB12_18
	jmp	.LBB12_26
.LBB12_7:                               # %"$6"
	movq	(%rsi), %rsi
	testq	%rbx, %rbx
	jne	.LBB12_11
.LBB12_10:
	movq	%rsi, %rax
	jmp	.LBB12_27
.LBB12_15:                              # %"$28.preheader"
	incq	%rbx
	.p2align	4, 0x90
.LBB12_16:                              # %"$28"
                                        # =>This Inner Loop Header: Depth=1
	leaq	-1(%rbx), %rax
	subq	$32, %rsp
	cmpq	$-64, %rax
	ja	.LBB12_24
# %bb.17:                               # %"$29"
                                        #   in Loop: Header=BB12_16 Depth=1
	xorl	%ecx, %ecx
	callq	consNum
	addq	$32, %rsp
	movq	%rax, %rdx
	movq	%rax, (%rdi)
	addq	$64, %rbx
	cmpq	$1, %rbx
	jne	.LBB12_16
	jmp	.LBB12_26
.LBB12_21:                              # %"$22"
	subq	$32, %rsp
	movq	%rdx, %rcx
	callq	shru
	addq	$32, %rsp
	movq	%rax, %rdx
	movq	%rax, (%rdi)
	cmpq	$1, %rbx
	je	.LBB12_26
# %bb.22:                               # %"$26.preheader"
	decq	%rbx
	.p2align	4, 0x90
.LBB12_23:                              # %"$26"
                                        # =>This Inner Loop Header: Depth=1
	subq	$32, %rsp
	movq	%rdx, %rcx
	callq	half
	addq	$32, %rsp
	movq	%rax, %rdx
	decq	%rbx
	jne	.LBB12_23
	jmp	.LBB12_26
.LBB12_24:                              # %"$30"
	movq	%rdx, %rcx
	callq	shlu
	addq	$32, %rsp
	movq	%rax, %rdx
	movq	%rax, (%rdi)
	testq	%rbx, %rbx
	je	.LBB12_26
	.p2align	4, 0x90
.LBB12_25:                              # %"$34"
                                        # =>This Inner Loop Header: Depth=1
	subq	$32, %rsp
	movq	%rdx, %rcx
	callq	twice
	addq	$32, %rsp
	movq	%rax, %rdx
	movq	%rax, (%rdi)
	incq	%rbx
	jne	.LBB12_25
.LBB12_26:                              # %"$-9"
	movq	%rdx, %rax
	xorq	$8, %rax
	cmpq	$2, %rdx
	cmoveq	%rdx, %rax
	testb	$8, %sil
	cmoveq	%rdx, %rax
	movq	8(%rdi), %rcx
	movq	%rcx, env(%rip)
.LBB12_27:                              # %"$14"
	leaq	8(%rbp), %rsp
	popq	%rbx
	popq	%rdi
	popq	%rsi
	popq	%rbp
	retq
.LBB12_28:                              # %"$2.i.i"
	subq	$32, %rsp
	movq	%rdi, %rcx
	movq	%rax, %rdx
	callq	cntErr
.LBB12_29:                              # %"$10"
	subq	$32, %rsp
	movq	%rdi, %rcx
	movq	%rsi, %rdx
	callq	numErr
	int3
	.seh_handlerdata
	.text
	.seh_endproc
                                        # -- End function
	.def	 _rev;
	.scl	2;
	.type	32;
	.endef
	.globl	_rev                            # -- Begin function _rev
	.p2align	4, 0x90
_rev:                                   # @_rev
.seh_proc _rev
# %bb.0:                                # %"$1"
	pushq	%rsi
	.seh_pushreg %rsi
	pushq	%rdi
	.seh_pushreg %rdi
	pushq	%rbx
	.seh_pushreg %rbx
	subq	$32, %rsp
	.seh_stackalloc 32
	.seh_endprologue
	movq	%rcx, %rsi
	movq	8(%rcx), %rbx
	movq	(%rbx), %rax
	testb	$6, %al
	jne	.LBB13_4
# %bb.1:                                # %"$3.i"
	testb	$8, %al
	jne	.LBB13_2
# %bb.3:                                # %"$5.i"
	movq	%rax, %rcx
	callq	evList
	jmp	.LBB13_4
.LBB13_2:                               # %"$6.i"
	movq	(%rax), %rax
.LBB13_4:                               # %"$2.i"
	testb	$2, %al
	je	.LBB13_13
# %bb.5:                                # %evCnt.exit
	movq	%rax, %rcx
	shrq	$4, %rcx
	movq	%rcx, %rdi
	negq	%rdi
	testb	$8, %al
	cmoveq	%rcx, %rdi
	movq	8(%rbx), %rax
	movq	(%rax), %rax
	testb	$6, %al
	jne	.LBB13_9
# %bb.6:                                # %"$3.i3"
	testb	$8, %al
	jne	.LBB13_7
# %bb.8:                                # %"$5.i5"
	movq	%rax, %rcx
	callq	evList
	jmp	.LBB13_9
.LBB13_7:                               # %"$6.i4"
	movq	(%rax), %rax
.LBB13_9:                               # %"$2.i7"
	testb	$2, %al
	je	.LBB13_13
# %bb.10:                               # %evCnt.exit10
	movq	%rax, %rdx
	shrq	$4, %rdx
	movq	%rdx, %rcx
	negq	%rcx
	testb	$8, %al
	cmoveq	%rdx, %rcx
	xorl	%eax, %eax
	.p2align	4, 0x90
.LBB13_11:                              # %"$2"
                                        # =>This Inner Loop Header: Depth=1
	movl	%ecx, %edx
	andl	$1, %edx
	leaq	(%rdx,%rax,2), %rax
	shrq	%rcx
	decq	%rdi
	jne	.LBB13_11
# %bb.12:                               # %"$4"
	shlq	$4, %rax
	orq	$2, %rax
	addq	$32, %rsp
	popq	%rbx
	popq	%rdi
	popq	%rsi
	retq
.LBB13_13:                              # %"$2.i.i"
	movq	%rsi, %rcx
	movq	%rax, %rdx
	callq	cntErr
	int3
	.seh_handlerdata
	.text
	.seh_endproc
                                        # -- End function
	.def	 _lt0;
	.scl	2;
	.type	32;
	.endef
	.globl	_lt0                            # -- Begin function _lt0
	.p2align	4, 0x90
_lt0:                                   # @_lt0
.seh_proc _lt0
# %bb.0:                                # %"$1"
	subq	$40, %rsp
	.seh_stackalloc 40
	.seh_endprologue
	movq	8(%rcx), %rax
	movq	(%rax), %rax
	testb	$6, %al
	jne	.LBB14_4
# %bb.1:                                # %"$4"
	testb	$8, %al
	jne	.LBB14_2
# %bb.3:                                # %"$6"
	movq	%rax, %rcx
	callq	evList
	jmp	.LBB14_4
.LBB14_2:                               # %"$7"
	movq	(%rax), %rax
.LBB14_4:                               # %"$3"
	leaq	SymTab+8(%rip), %rdx
	testb	$8, %al
	movq	%rax, %rcx
	cmoveq	%rdx, %rcx
	testb	$6, %al
	cmoveq	%rdx, %rcx
	movq	%rcx, %rax
	addq	$40, %rsp
	retq
	.seh_handlerdata
	.text
	.seh_endproc
                                        # -- End function
	.def	 _le0;
	.scl	2;
	.type	32;
	.endef
	.globl	_le0                            # -- Begin function _le0
	.p2align	4, 0x90
_le0:                                   # @_le0
.seh_proc _le0
# %bb.0:                                # %"$1"
	subq	$40, %rsp
	.seh_stackalloc 40
	.seh_endprologue
	movq	8(%rcx), %rax
	movq	(%rax), %rax
	testb	$6, %al
	jne	.LBB15_4
# %bb.1:                                # %"$4"
	testb	$8, %al
	jne	.LBB15_2
# %bb.3:                                # %"$6"
	movq	%rax, %rcx
	callq	evList
	jmp	.LBB15_4
.LBB15_2:                               # %"$7"
	movq	(%rax), %rax
.LBB15_4:                               # %"$3"
	leaq	SymTab+8(%rip), %rdx
	testb	$8, %al
	movq	%rdx, %rcx
	cmovneq	%rax, %rcx
	cmpq	$2, %rax
	cmoveq	%rax, %rcx
	testb	$6, %al
	cmoveq	%rdx, %rcx
	movq	%rcx, %rax
	addq	$40, %rsp
	retq
	.seh_handlerdata
	.text
	.seh_endproc
                                        # -- End function
	.def	 _ge0;
	.scl	2;
	.type	32;
	.endef
	.globl	_ge0                            # -- Begin function _ge0
	.p2align	4, 0x90
_ge0:                                   # @_ge0
.seh_proc _ge0
# %bb.0:                                # %"$1"
	subq	$40, %rsp
	.seh_stackalloc 40
	.seh_endprologue
	movq	8(%rcx), %rax
	movq	(%rax), %rax
	testb	$6, %al
	jne	.LBB16_4
# %bb.1:                                # %"$4"
	testb	$8, %al
	jne	.LBB16_2
# %bb.3:                                # %"$6"
	movq	%rax, %rcx
	callq	evList
	jmp	.LBB16_4
.LBB16_2:                               # %"$7"
	movq	(%rax), %rax
.LBB16_4:                               # %"$3"
	testb	$8, %al
	leaq	SymTab+8(%rip), %rdx
	movq	%rax, %rcx
	cmovneq	%rdx, %rcx
	testb	$6, %al
	cmoveq	%rdx, %rcx
	movq	%rcx, %rax
	addq	$40, %rsp
	retq
	.seh_handlerdata
	.text
	.seh_endproc
                                        # -- End function
	.def	 _gt0;
	.scl	2;
	.type	32;
	.endef
	.globl	_gt0                            # -- Begin function _gt0
	.p2align	4, 0x90
_gt0:                                   # @_gt0
.seh_proc _gt0
# %bb.0:                                # %"$1"
	subq	$40, %rsp
	.seh_stackalloc 40
	.seh_endprologue
	movq	8(%rcx), %rax
	movq	(%rax), %rax
	testb	$6, %al
	jne	.LBB17_4
# %bb.1:                                # %"$4"
	testb	$8, %al
	jne	.LBB17_2
# %bb.3:                                # %"$6"
	movq	%rax, %rcx
	callq	evList
	jmp	.LBB17_4
.LBB17_2:                               # %"$7"
	movq	(%rax), %rax
.LBB17_4:                               # %"$3"
	testb	$6, %al
	leaq	SymTab+8(%rip), %rdx
	movq	%rdx, %rcx
	cmovneq	%rax, %rcx
	cmpq	$2, %rax
	cmoveq	%rdx, %rcx
	testb	$8, %al
	cmovneq	%rdx, %rcx
	movq	%rcx, %rax
	addq	$40, %rsp
	retq
	.seh_handlerdata
	.text
	.seh_endproc
                                        # -- End function
	.def	 _abs;
	.scl	2;
	.type	32;
	.endef
	.globl	_abs                            # -- Begin function _abs
	.p2align	4, 0x90
_abs:                                   # @_abs
.seh_proc _abs
# %bb.0:                                # %"$1"
	pushq	%rsi
	.seh_pushreg %rsi
	subq	$32, %rsp
	.seh_stackalloc 32
	.seh_endprologue
	movq	%rcx, %rsi
	movq	8(%rcx), %rax
	movq	(%rax), %rax
	testb	$6, %al
	jne	.LBB18_4
# %bb.1:                                # %"$3"
	testb	$8, %al
	jne	.LBB18_2
# %bb.3:                                # %"$5"
	movq	%rax, %rcx
	callq	evList
	jmp	.LBB18_4
.LBB18_2:                               # %"$6"
	movq	(%rax), %rax
.LBB18_4:                               # %"$2"
	leaq	SymTab+8(%rip), %rcx
	cmpq	%rcx, %rax
	je	.LBB18_7
# %bb.5:                                # %"$8"
	testb	$6, %al
	je	.LBB18_8
# %bb.6:                                # %"$11"
	andq	$-9, %rax
	movq	%rax, %rcx
.LBB18_7:                               # %"$9"
	movq	%rcx, %rax
	addq	$32, %rsp
	popq	%rsi
	retq
.LBB18_8:                               # %"$10"
	movq	%rsi, %rcx
	movq	%rax, %rdx
	callq	numErr
	int3
	.seh_handlerdata
	.text
	.seh_endproc
                                        # -- End function
	.def	 _bitQ;
	.scl	2;
	.type	32;
	.endef
	.globl	_bitQ                           # -- Begin function _bitQ
	.p2align	4, 0x90
_bitQ:                                  # @_bitQ
.seh_proc _bitQ
# %bb.0:                                # %"$1"
	pushq	%rbp
	.seh_pushreg %rbp
	pushq	%r15
	.seh_pushreg %r15
	pushq	%r14
	.seh_pushreg %r14
	pushq	%r12
	.seh_pushreg %r12
	pushq	%rsi
	.seh_pushreg %rsi
	pushq	%rdi
	.seh_pushreg %rdi
	pushq	%rbx
	.seh_pushreg %rbx
	movq	%rsp, %rbp
	.seh_setframe %rbp, 0
	.seh_endprologue
	movq	%rcx, %r14
	movq	8(%rcx), %rax
	movq	(%rax), %rbx
	movq	8(%rax), %rsi
	testb	$6, %bl
	jne	.LBB19_4
# %bb.1:                                # %"$3"
	testb	$8, %bl
	jne	.LBB19_2
# %bb.3:                                # %"$5"
	subq	$32, %rsp
	movq	%rbx, %rcx
	callq	evList
	addq	$32, %rsp
	movq	%rax, %rbx
	jmp	.LBB19_4
.LBB19_2:                               # %"$6"
	movq	(%rbx), %rbx
.LBB19_4:                               # %"$2"
	testb	$6, %bl
	je	.LBB19_37
# %bb.5:                                # %"$8"
	movq	%rbx, %rdi
	andq	$-9, %rdi
	movq	env(%rip), %rcx
	movl	$16, %eax
	callq	___chkstk_ms
	subq	%rax, %rsp
	movq	%rsp, %r15
	movq	%rdi, (%r15)
	movq	%r15, %rax
	orq	$8, %rax
	movq	%rcx, (%rax)
	movq	%r15, env(%rip)
	testb	$4, %bl
	jne	.LBB19_6
# %bb.11:                               # %"$9.us.preheader"
	shrq	$4, %rbx
	leaq	SymTab+8(%rip), %r12
	jmp	.LBB19_12
	.p2align	4, 0x90
.LBB19_21:                              # %"$29.us"
                                        #   in Loop: Header=BB19_12 Depth=1
	movq	-4(%rcx), %rcx
	movq	%rbx, %rax
.LBB19_22:                              # %"$30.us"
                                        #   in Loop: Header=BB19_12 Depth=1
	andq	%rax, %rcx
	cmpq	%rcx, %rax
	jne	.LBB19_35
.LBB19_12:                              # %"$9.us"
                                        # =>This Inner Loop Header: Depth=1
	testb	$15, %sil
	jne	.LBB19_36
# %bb.13:                               # %"$10.us"
                                        #   in Loop: Header=BB19_12 Depth=1
	movq	(%rsi), %rax
	movq	8(%rsi), %rsi
	testb	$6, %al
	jne	.LBB19_17
# %bb.14:                               # %"$14.us"
                                        #   in Loop: Header=BB19_12 Depth=1
	testb	$8, %al
	jne	.LBB19_15
# %bb.16:                               # %"$16.us"
                                        #   in Loop: Header=BB19_12 Depth=1
	subq	$32, %rsp
	movq	%rax, %rcx
	callq	evList
	addq	$32, %rsp
	.p2align	4, 0x90
.LBB19_17:                              # %"$13.us"
                                        #   in Loop: Header=BB19_12 Depth=1
	cmpq	%r12, %rax
	je	.LBB19_35
.LBB19_18:                              # %"$18.us"
                                        #   in Loop: Header=BB19_12 Depth=1
	testb	$6, %al
	je	.LBB19_38
# %bb.19:                               # %"$21.us"
                                        #   in Loop: Header=BB19_12 Depth=1
	movq	%rax, %rcx
	andq	$-9, %rcx
	testb	$4, %al
	jne	.LBB19_21
# %bb.20:                               #   in Loop: Header=BB19_12 Depth=1
	movq	%rdi, %rax
	jmp	.LBB19_22
.LBB19_15:                              # %"$17.us"
                                        #   in Loop: Header=BB19_12 Depth=1
	movq	(%rax), %rax
	cmpq	%r12, %rax
	jne	.LBB19_18
.LBB19_35:
	movq	%r12, %rdi
.LBB19_36:                              # %"$11"
	movq	8(%r15), %rax
	movq	%rax, env(%rip)
	movq	%rdi, %rax
	jmp	.LBB19_29
.LBB19_6:
	leaq	SymTab+8(%rip), %r12
.LBB19_7:                               # %"$9"
                                        # =>This Loop Header: Depth=1
                                        #     Child Loop BB19_27 Depth 2
	testb	$15, %sil
	jne	.LBB19_36
# %bb.8:                                # %"$10"
                                        #   in Loop: Header=BB19_7 Depth=1
	movq	(%rsi), %rax
	movq	8(%rsi), %rsi
	testb	$6, %al
	jne	.LBB19_24
# %bb.9:                                # %"$14"
                                        #   in Loop: Header=BB19_7 Depth=1
	testb	$8, %al
	jne	.LBB19_10
# %bb.23:                               # %"$16"
                                        #   in Loop: Header=BB19_7 Depth=1
	subq	$32, %rsp
	movq	%rax, %rcx
	callq	evList
	addq	$32, %rsp
	jmp	.LBB19_24
.LBB19_10:                              # %"$17"
                                        #   in Loop: Header=BB19_7 Depth=1
	movq	(%rax), %rax
	.p2align	4, 0x90
.LBB19_24:                              # %"$13"
                                        #   in Loop: Header=BB19_7 Depth=1
	cmpq	%r12, %rax
	je	.LBB19_35
# %bb.25:                               # %"$18"
                                        #   in Loop: Header=BB19_7 Depth=1
	testb	$6, %al
	je	.LBB19_38
# %bb.26:                               # %"$21"
                                        #   in Loop: Header=BB19_7 Depth=1
	movq	%rax, %rcx
	andq	$-9, %rcx
	testb	$4, %al
	sete	%dl
	movq	%rdi, %rax
	.p2align	4, 0x90
.LBB19_27:                              # %"$23"
                                        #   Parent Loop BB19_7 Depth=1
                                        # =>  This Inner Loop Header: Depth=2
	testb	$1, %dl
	jne	.LBB19_28
# %bb.30:                               # %"$26"
                                        #   in Loop: Header=BB19_27 Depth=2
	movq	-4(%rax), %rdx
	movq	-4(%rcx), %rbx
	andq	%rdx, %rbx
	cmpq	%rbx, %rdx
	jne	.LBB19_28
# %bb.31:                               # %"$28"
                                        #   in Loop: Header=BB19_27 Depth=2
	movq	4(%rcx), %rcx
	movq	4(%rax), %rax
	testb	$4, %cl
	sete	%dl
	testb	$4, %al
	jne	.LBB19_27
# %bb.32:                               # %"$24"
                                        #   in Loop: Header=BB19_7 Depth=1
	testb	$4, %cl
	je	.LBB19_34
# %bb.33:                               # %"$29"
                                        #   in Loop: Header=BB19_7 Depth=1
	shrq	$4, %rax
	movq	-4(%rcx), %rcx
.LBB19_34:                              # %"$30"
                                        #   in Loop: Header=BB19_7 Depth=1
	andq	%rax, %rcx
	cmpq	%rcx, %rax
	je	.LBB19_7
	jmp	.LBB19_35
.LBB19_28:                              # %"$25"
	movq	8(%r15), %rax
	movq	%rax, env(%rip)
	leaq	SymTab+8(%rip), %rax
.LBB19_29:                              # %"$25"
	movq	%rbp, %rsp
	popq	%rbx
	popq	%rdi
	popq	%rsi
	popq	%r12
	popq	%r14
	popq	%r15
	popq	%rbp
	retq
.LBB19_38:                              # %"$20"
	subq	$32, %rsp
	movq	%r14, %rcx
	movq	%rax, %rdx
	callq	numErr
.LBB19_37:                              # %"$7"
	subq	$32, %rsp
	movq	%r14, %rcx
	movq	%rbx, %rdx
	callq	numErr
	int3
	.seh_handlerdata
	.text
	.seh_endproc
                                        # -- End function
	.def	 _bitAnd;
	.scl	2;
	.type	32;
	.endef
	.globl	_bitAnd                         # -- Begin function _bitAnd
	.p2align	4, 0x90
_bitAnd:                                # @_bitAnd
.seh_proc _bitAnd
# %bb.0:                                # %"$1"
	pushq	%rbp
	.seh_pushreg %rbp
	pushq	%r15
	.seh_pushreg %r15
	pushq	%r14
	.seh_pushreg %r14
	pushq	%r12
	.seh_pushreg %r12
	pushq	%rsi
	.seh_pushreg %rsi
	pushq	%rdi
	.seh_pushreg %rdi
	pushq	%rbx
	.seh_pushreg %rbx
	movq	%rsp, %rbp
	.seh_setframe %rbp, 0
	.seh_endprologue
	movq	%rcx, %r14
	movq	8(%rcx), %r15
	movq	(%r15), %rdx
	testb	$6, %dl
	jne	.LBB20_4
# %bb.1:                                # %"$3"
	testb	$8, %dl
	jne	.LBB20_2
# %bb.3:                                # %"$5"
	subq	$32, %rsp
	movq	%rdx, %rcx
	callq	evList
	addq	$32, %rsp
	movq	%rax, %rdx
	jmp	.LBB20_4
.LBB20_2:                               # %"$6"
	movq	(%rdx), %rdx
.LBB20_4:                               # %"$2"
	leaq	SymTab+8(%rip), %rdi
	cmpq	%rdi, %rdx
	je	.LBB20_17
# %bb.5:                                # %"$8"
	movq	env(%rip), %rcx
	movl	$16, %eax
	callq	___chkstk_ms
	subq	%rax, %rsp
	movq	%rsp, %r12
	movq	$10, (%r12)
	movq	%r12, %rax
	orq	$8, %rax
	movq	%rcx, (%rax)
	movq	%r12, env(%rip)
	testb	$6, %dl
	je	.LBB20_18
# %bb.6:                                # %"$11"
	andq	$-9, %rdx
	movl	$16, %eax
	callq	___chkstk_ms
	subq	%rax, %rsp
	movq	%rsp, %rsi
	movq	%rdx, (%rsi)
	movq	%r12, 8(%rsi)
	movq	%rsi, env(%rip)
	movq	8(%r15), %rbx
	testb	$15, %bl
	movq	%rdx, %rdi
	jne	.LBB20_16
# %bb.7:                                # %"$13.preheader"
	leaq	SymTab+8(%rip), %rdi
	.p2align	4, 0x90
.LBB20_8:                               # %"$13"
                                        # =>This Inner Loop Header: Depth=1
	movq	(%rbx), %rdx
	testb	$6, %dl
	jne	.LBB20_12
# %bb.9:                                # %"$17"
                                        #   in Loop: Header=BB20_8 Depth=1
	testb	$8, %dl
	jne	.LBB20_10
# %bb.11:                               # %"$19"
                                        #   in Loop: Header=BB20_8 Depth=1
	subq	$32, %rsp
	movq	%rdx, %rcx
	callq	evList
	addq	$32, %rsp
	movq	%rax, %rdx
	jmp	.LBB20_12
.LBB20_10:                              # %"$20"
                                        #   in Loop: Header=BB20_8 Depth=1
	movq	(%rdx), %rdx
	.p2align	4, 0x90
.LBB20_12:                              # %"$16"
                                        #   in Loop: Header=BB20_8 Depth=1
	cmpq	%rdi, %rdx
	je	.LBB20_16
# %bb.13:                               # %"$21"
                                        #   in Loop: Header=BB20_8 Depth=1
	testb	$6, %dl
	je	.LBB20_18
# %bb.14:                               # %"$24"
                                        #   in Loop: Header=BB20_8 Depth=1
	movq	%rdx, (%r12)
	movq	(%rsi), %rcx
	andq	$-9, %rdx
	subq	$32, %rsp
	callq	andu
	addq	$32, %rsp
	movq	%rax, (%rsi)
	movq	8(%rbx), %rbx
	testb	$15, %bl
	je	.LBB20_8
# %bb.15:
	movq	%rax, %rdi
.LBB20_16:                              # %"$14"
	movq	8(%r12), %rax
	movq	%rax, env(%rip)
.LBB20_17:                              # %"$9"
	movq	%rdi, %rax
	movq	%rbp, %rsp
	popq	%rbx
	popq	%rdi
	popq	%rsi
	popq	%r12
	popq	%r14
	popq	%r15
	popq	%rbp
	retq
.LBB20_18:                              # %"$10"
	subq	$32, %rsp
	movq	%r14, %rcx
	callq	numErr
	int3
	.seh_handlerdata
	.text
	.seh_endproc
                                        # -- End function
	.def	 _bitOr;
	.scl	2;
	.type	32;
	.endef
	.globl	_bitOr                          # -- Begin function _bitOr
	.p2align	4, 0x90
_bitOr:                                 # @_bitOr
.seh_proc _bitOr
# %bb.0:                                # %"$1"
	pushq	%rbp
	.seh_pushreg %rbp
	pushq	%r15
	.seh_pushreg %r15
	pushq	%r14
	.seh_pushreg %r14
	pushq	%r12
	.seh_pushreg %r12
	pushq	%rsi
	.seh_pushreg %rsi
	pushq	%rdi
	.seh_pushreg %rdi
	pushq	%rbx
	.seh_pushreg %rbx
	movq	%rsp, %rbp
	.seh_setframe %rbp, 0
	.seh_endprologue
	movq	%rcx, %r14
	movq	8(%rcx), %r15
	movq	(%r15), %rdx
	testb	$6, %dl
	jne	.LBB21_4
# %bb.1:                                # %"$3"
	testb	$8, %dl
	jne	.LBB21_2
# %bb.3:                                # %"$5"
	subq	$32, %rsp
	movq	%rdx, %rcx
	callq	evList
	addq	$32, %rsp
	movq	%rax, %rdx
	jmp	.LBB21_4
.LBB21_2:                               # %"$6"
	movq	(%rdx), %rdx
.LBB21_4:                               # %"$2"
	leaq	SymTab+8(%rip), %rdi
	cmpq	%rdi, %rdx
	je	.LBB21_17
# %bb.5:                                # %"$8"
	movq	env(%rip), %rcx
	movl	$16, %eax
	callq	___chkstk_ms
	subq	%rax, %rsp
	movq	%rsp, %r12
	movq	$10, (%r12)
	movq	%r12, %rax
	orq	$8, %rax
	movq	%rcx, (%rax)
	movq	%r12, env(%rip)
	testb	$6, %dl
	je	.LBB21_18
# %bb.6:                                # %"$11"
	andq	$-9, %rdx
	movl	$16, %eax
	callq	___chkstk_ms
	subq	%rax, %rsp
	movq	%rsp, %rsi
	movq	%rdx, (%rsi)
	movq	%r12, 8(%rsi)
	movq	%rsi, env(%rip)
	movq	8(%r15), %rbx
	testb	$15, %bl
	movq	%rdx, %rdi
	jne	.LBB21_16
# %bb.7:                                # %"$13.preheader"
	leaq	SymTab+8(%rip), %rdi
	.p2align	4, 0x90
.LBB21_8:                               # %"$13"
                                        # =>This Inner Loop Header: Depth=1
	movq	(%rbx), %rdx
	testb	$6, %dl
	jne	.LBB21_12
# %bb.9:                                # %"$17"
                                        #   in Loop: Header=BB21_8 Depth=1
	testb	$8, %dl
	jne	.LBB21_10
# %bb.11:                               # %"$19"
                                        #   in Loop: Header=BB21_8 Depth=1
	subq	$32, %rsp
	movq	%rdx, %rcx
	callq	evList
	addq	$32, %rsp
	movq	%rax, %rdx
	jmp	.LBB21_12
.LBB21_10:                              # %"$20"
                                        #   in Loop: Header=BB21_8 Depth=1
	movq	(%rdx), %rdx
	.p2align	4, 0x90
.LBB21_12:                              # %"$16"
                                        #   in Loop: Header=BB21_8 Depth=1
	cmpq	%rdi, %rdx
	je	.LBB21_16
# %bb.13:                               # %"$21"
                                        #   in Loop: Header=BB21_8 Depth=1
	testb	$6, %dl
	je	.LBB21_18
# %bb.14:                               # %"$24"
                                        #   in Loop: Header=BB21_8 Depth=1
	movq	%rdx, (%r12)
	movq	(%rsi), %rcx
	andq	$-9, %rdx
	subq	$32, %rsp
	callq	oru
	addq	$32, %rsp
	movq	%rax, (%rsi)
	movq	8(%rbx), %rbx
	testb	$15, %bl
	je	.LBB21_8
# %bb.15:
	movq	%rax, %rdi
.LBB21_16:                              # %"$14"
	movq	8(%r12), %rax
	movq	%rax, env(%rip)
.LBB21_17:                              # %"$9"
	movq	%rdi, %rax
	movq	%rbp, %rsp
	popq	%rbx
	popq	%rdi
	popq	%rsi
	popq	%r12
	popq	%r14
	popq	%r15
	popq	%rbp
	retq
.LBB21_18:                              # %"$10"
	subq	$32, %rsp
	movq	%r14, %rcx
	callq	numErr
	int3
	.seh_handlerdata
	.text
	.seh_endproc
                                        # -- End function
	.def	 _bitXor;
	.scl	2;
	.type	32;
	.endef
	.globl	_bitXor                         # -- Begin function _bitXor
	.p2align	4, 0x90
_bitXor:                                # @_bitXor
.seh_proc _bitXor
# %bb.0:                                # %"$1"
	pushq	%rbp
	.seh_pushreg %rbp
	pushq	%r15
	.seh_pushreg %r15
	pushq	%r14
	.seh_pushreg %r14
	pushq	%r12
	.seh_pushreg %r12
	pushq	%rsi
	.seh_pushreg %rsi
	pushq	%rdi
	.seh_pushreg %rdi
	pushq	%rbx
	.seh_pushreg %rbx
	movq	%rsp, %rbp
	.seh_setframe %rbp, 0
	.seh_endprologue
	movq	%rcx, %r14
	movq	8(%rcx), %r15
	movq	(%r15), %rdx
	testb	$6, %dl
	jne	.LBB22_4
# %bb.1:                                # %"$3"
	testb	$8, %dl
	jne	.LBB22_2
# %bb.3:                                # %"$5"
	subq	$32, %rsp
	movq	%rdx, %rcx
	callq	evList
	addq	$32, %rsp
	movq	%rax, %rdx
	jmp	.LBB22_4
.LBB22_2:                               # %"$6"
	movq	(%rdx), %rdx
.LBB22_4:                               # %"$2"
	leaq	SymTab+8(%rip), %rdi
	cmpq	%rdi, %rdx
	je	.LBB22_17
# %bb.5:                                # %"$8"
	movq	env(%rip), %rcx
	movl	$16, %eax
	callq	___chkstk_ms
	subq	%rax, %rsp
	movq	%rsp, %r12
	movq	$10, (%r12)
	movq	%r12, %rax
	orq	$8, %rax
	movq	%rcx, (%rax)
	movq	%r12, env(%rip)
	testb	$6, %dl
	je	.LBB22_18
# %bb.6:                                # %"$11"
	andq	$-9, %rdx
	movl	$16, %eax
	callq	___chkstk_ms
	subq	%rax, %rsp
	movq	%rsp, %rsi
	movq	%rdx, (%rsi)
	movq	%r12, 8(%rsi)
	movq	%rsi, env(%rip)
	movq	8(%r15), %rbx
	testb	$15, %bl
	movq	%rdx, %rdi
	jne	.LBB22_16
# %bb.7:                                # %"$13.preheader"
	leaq	SymTab+8(%rip), %rdi
	.p2align	4, 0x90
.LBB22_8:                               # %"$13"
                                        # =>This Inner Loop Header: Depth=1
	movq	(%rbx), %rdx
	testb	$6, %dl
	jne	.LBB22_12
# %bb.9:                                # %"$17"
                                        #   in Loop: Header=BB22_8 Depth=1
	testb	$8, %dl
	jne	.LBB22_10
# %bb.11:                               # %"$19"
                                        #   in Loop: Header=BB22_8 Depth=1
	subq	$32, %rsp
	movq	%rdx, %rcx
	callq	evList
	addq	$32, %rsp
	movq	%rax, %rdx
	jmp	.LBB22_12
.LBB22_10:                              # %"$20"
                                        #   in Loop: Header=BB22_8 Depth=1
	movq	(%rdx), %rdx
	.p2align	4, 0x90
.LBB22_12:                              # %"$16"
                                        #   in Loop: Header=BB22_8 Depth=1
	cmpq	%rdi, %rdx
	je	.LBB22_16
# %bb.13:                               # %"$21"
                                        #   in Loop: Header=BB22_8 Depth=1
	testb	$6, %dl
	je	.LBB22_18
# %bb.14:                               # %"$24"
                                        #   in Loop: Header=BB22_8 Depth=1
	movq	%rdx, (%r12)
	movq	(%rsi), %rcx
	andq	$-9, %rdx
	subq	$32, %rsp
	callq	xoru
	addq	$32, %rsp
	movq	%rax, (%rsi)
	movq	8(%rbx), %rbx
	testb	$15, %bl
	je	.LBB22_8
# %bb.15:
	movq	%rax, %rdi
.LBB22_16:                              # %"$14"
	movq	8(%r12), %rax
	movq	%rax, env(%rip)
.LBB22_17:                              # %"$9"
	movq	%rdi, %rax
	movq	%rbp, %rsp
	popq	%rbx
	popq	%rdi
	popq	%rsi
	popq	%r12
	popq	%r14
	popq	%r15
	popq	%rbp
	retq
.LBB22_18:                              # %"$10"
	subq	$32, %rsp
	movq	%r14, %rcx
	callq	numErr
	int3
	.seh_handlerdata
	.text
	.seh_endproc
                                        # -- End function
	.def	 _sqrt;
	.scl	2;
	.type	32;
	.endef
	.globl	_sqrt                           # -- Begin function _sqrt
	.p2align	4, 0x90
_sqrt:                                  # @_sqrt
.seh_proc _sqrt
# %bb.0:                                # %"$1"
	pushq	%rbp
	.seh_pushreg %rbp
	pushq	%r15
	.seh_pushreg %r15
	pushq	%r14
	.seh_pushreg %r14
	pushq	%r13
	.seh_pushreg %r13
	pushq	%r12
	.seh_pushreg %r12
	pushq	%rsi
	.seh_pushreg %rsi
	pushq	%rdi
	.seh_pushreg %rdi
	pushq	%rbx
	.seh_pushreg %rbx
	subq	$24, %rsp
	.seh_stackalloc 24
	leaq	16(%rsp), %rbp
	.seh_setframe %rbp, 16
	.seh_endprologue
	movq	%rcx, %r14
	movq	8(%rcx), %rsi
	movq	(%rsi), %rbx
	testb	$6, %bl
	jne	.LBB23_4
# %bb.1:                                # %"$3"
	testb	$8, %bl
	jne	.LBB23_2
# %bb.3:                                # %"$5"
	subq	$32, %rsp
	movq	%rbx, %rcx
	callq	evList
	addq	$32, %rsp
	movq	%rax, %rbx
	jmp	.LBB23_4
.LBB23_2:                               # %"$6"
	movq	(%rbx), %rbx
.LBB23_4:                               # %"$2"
	leaq	SymTab+8(%rip), %rdi
	cmpq	%rdi, %rbx
	je	.LBB23_49
# %bb.5:                                # %"$8"
	testb	$6, %bl
	je	.LBB23_50
# %bb.6:                                # %"$11"
	testb	$8, %bl
	jne	.LBB23_51
# %bb.7:                                # %"$13"
	movq	env(%rip), %rcx
	movl	$16, %eax
	callq	___chkstk_ms
	subq	%rax, %rsp
	movq	%rsp, %rdx
	movq	%rbx, (%rdx)
	movq	%rdx, %rax
	orq	$8, %rax
	movq	%rcx, (%rax)
	movq	%rdx, env(%rip)
	movq	8(%rsi), %rax
	movq	(%rax), %r14
	testb	$6, %r14b
	movq	%rdx, (%rbp)                    # 8-byte Spill
	je	.LBB23_9
# %bb.8:
	movq	%rdx, %rcx
	jmp	.LBB23_12
.LBB23_9:                               # %"$15"
	testb	$8, %r14b
	jne	.LBB23_10
# %bb.11:                               # %"$17"
	subq	$32, %rsp
	movq	%r14, %rcx
	callq	evList
	addq	$32, %rsp
	movq	%rax, %r14
	movq	env(%rip), %rcx
	jmp	.LBB23_12
.LBB23_10:                              # %"$18"
	movq	(%r14), %r14
	movq	(%rbp), %rcx                    # 8-byte Reload
.LBB23_12:                              # %"$14"
	movl	$16, %eax
	callq	___chkstk_ms
	subq	%rax, %rsp
	movq	%rsp, %rax
	movq	%r14, (%rax)
	movq	%rax, %rdx
	orq	$8, %rdx
	movq	%rcx, (%rdx)
	movq	%rax, env(%rip)
	testb	$6, %r14b
	je	.LBB23_14
# %bb.13:                               # %"$19"
	subq	$32, %rsp
	movq	%rbx, %rcx
	movq	%r14, %rdx
	callq	mulu
	addq	$32, %rsp
	movq	%rax, %rbx
	movq	(%rbp), %rax                    # 8-byte Reload
	movq	%rbx, (%rax)
.LBB23_14:                              # %"$20"
	testb	$2, %bl
	jne	.LBB23_15
# %bb.16:                               # %"$22"
	movq	%r14, -8(%rbp)                  # 8-byte Spill
	subq	$32, %rsp
	movl	$18, %edx
	xorl	%ecx, %ecx
	callq	consNum
	addq	$32, %rsp
	movq	%rax, %rdi
	movl	$16, %eax
	callq	___chkstk_ms
	subq	%rax, %rsp
	movq	%rsp, %r12
	movq	%rdi, (%r12)
	movq	env(%rip), %rax
	movq	%rax, 8(%r12)
	movl	$16, %eax
	callq	___chkstk_ms
	subq	%rax, %rsp
	movq	%rsp, %r13
	movq	$2, (%r13)
	movq	%r12, 8(%r13)
	movq	%r13, env(%rip)
	movq	-4(%rbx), %rsi
	movq	($Avail)(%rip), %rcx
	testq	%rcx, %rcx
	jne	.LBB23_18
# %bb.17:                               # %"$2.i"
	subq	$32, %rsp
	callq	gc
	addq	$32, %rsp
	movq	($Avail)(%rip), %rcx
.LBB23_18:                              # %boxNum.exit
	movq	(%rcx), %rax
	movq	%rax, ($Avail)(%rip)
	movq	%rsi, (%rcx)
	leaq	8(%rcx), %r15
	movq	$2, 8(%rcx)
	addq	$4, %rcx
	movl	$16, %eax
	callq	___chkstk_ms
	subq	%rax, %rsp
	movq	%rsp, %r14
	movq	%rcx, (%r14)
	movq	env(%rip), %rax
	movq	%rax, 8(%r14)
	movq	%r14, env(%rip)
	movq	4(%rbx), %rsi
	testb	$4, %sil
	jne	.LBB23_20
# %bb.19:
	movq	%r15, %rbx
.LBB23_23:                              # %"$34"
	movq	%rsi, (%rbx)
	movq	(%r14), %r15
	movq	(%rbp), %rbx                    # 8-byte Reload
	movq	%r15, (%rbx)
	subq	$32, %rsp
	movq	%rdi, %rcx
	movq	%r15, %rdx
	callq	cmpu
	addq	$32, %rsp
	testq	%rax, %rax
	jg	.LBB23_41
	jmp	.LBB23_24
	.p2align	4, 0x90
.LBB23_22:                              # %boxNum.exit27
                                        #   in Loop: Header=BB23_20 Depth=1
	movq	(%rax), %rcx
	movq	%rcx, ($Avail)(%rip)
	movq	%rbx, (%rax)
	leaq	8(%rax), %rbx
	movq	$2, 8(%rax)
	addq	$4, %rax
	movq	%rax, (%r15)
	subq	$32, %rsp
	xorl	%ecx, %ecx
	movq	%rdi, %rdx
	callq	consNum
	addq	$32, %rsp
	movq	%rax, %rdi
	movq	%rax, (%r12)
	movq	4(%rsi), %rsi
	testb	$4, %sil
	movq	%rbx, %r15
	je	.LBB23_23
.LBB23_20:                              # %"$33"
                                        # =>This Inner Loop Header: Depth=1
	movq	-4(%rsi), %rbx
	movq	($Avail)(%rip), %rax
	testq	%rax, %rax
	jne	.LBB23_22
# %bb.21:                               # %"$2.i26"
                                        #   in Loop: Header=BB23_20 Depth=1
	subq	$32, %rsp
	callq	gc
	addq	$32, %rsp
	movq	($Avail)(%rip), %rax
	jmp	.LBB23_22
	.p2align	4, 0x90
.LBB23_39:                              # %"$6.i41"
                                        #   in Loop: Header=BB23_24 Depth=1
	shlq	$4, %rbx
	orq	$2, %rbx
	movq	%rbx, %rax
.LBB23_40:                              # %twiceBig.exit42
                                        #   in Loop: Header=BB23_24 Depth=1
	movq	%rax, 4(%rsi)
	subq	$32, %rsp
	movq	%rdi, %rcx
	movq	%r15, %rdx
	callq	cmpu
	addq	$32, %rsp
	testq	%rax, %rax
	movq	(%rbp), %rbx                    # 8-byte Reload
	jg	.LBB23_41
.LBB23_24:                              # %"$36"
                                        # =>This Loop Header: Depth=1
                                        #     Child Loop BB23_26 Depth 2
                                        #     Child Loop BB23_34 Depth 2
	movq	-4(%rdi), %rcx
	movq	4(%rdi), %rax
	leaq	(%rcx,%rcx), %rdx
	movq	%rdx, -4(%rdi)
	testb	$4, %al
	jne	.LBB23_26
# %bb.25:                               #   in Loop: Header=BB23_24 Depth=1
	movq	%rdi, %rsi
	movq	%rcx, %rdx
	jmp	.LBB23_27
	.p2align	4, 0x90
.LBB23_26:                              # %"$3.i"
                                        #   Parent Loop BB23_24 Depth=1
                                        # =>  This Inner Loop Header: Depth=2
	movq	%rax, %rsi
	movq	-4(%rax), %rdx
	movq	4(%rax), %rax
	shrdq	$63, %rdx, %rcx
	movq	%rcx, -4(%rsi)
	testb	$4, %al
	movq	%rdx, %rcx
	jne	.LBB23_26
.LBB23_27:                              # %"$4.i"
                                        #   in Loop: Header=BB23_24 Depth=1
	movq	%rax, %rbx
	shrq	$4, %rbx
	shldq	$1, %rdx, %rbx
	testq	%rax, %rax
	js	.LBB23_28
# %bb.31:                               # %"$6.i"
                                        #   in Loop: Header=BB23_24 Depth=1
	shlq	$4, %rbx
	orq	$2, %rbx
	movq	%rbx, %rax
	jmp	.LBB23_32
	.p2align	4, 0x90
.LBB23_28:                              # %"$5.i"
                                        #   in Loop: Header=BB23_24 Depth=1
	movq	($Avail)(%rip), %rax
	testq	%rax, %rax
	jne	.LBB23_30
# %bb.29:                               # %"$2.i.i"
                                        #   in Loop: Header=BB23_24 Depth=1
	subq	$32, %rsp
	callq	gc
	addq	$32, %rsp
	movq	($Avail)(%rip), %rax
.LBB23_30:                              # %boxNum.exit.i
                                        #   in Loop: Header=BB23_24 Depth=1
	movq	(%rax), %rcx
	movq	%rcx, ($Avail)(%rip)
	movq	%rbx, (%rax)
	movq	$2, 8(%rax)
	addq	$4, %rax
.LBB23_32:                              # %twiceBig.exit
                                        #   in Loop: Header=BB23_24 Depth=1
	movq	%rax, 4(%rsi)
	movq	-4(%rdi), %rcx
	movq	4(%rdi), %rax
	leaq	(%rcx,%rcx), %rdx
	movq	%rdx, -4(%rdi)
	testb	$4, %al
	jne	.LBB23_34
# %bb.33:                               #   in Loop: Header=BB23_24 Depth=1
	movq	%rdi, %rsi
	movq	%rcx, %rdx
	jmp	.LBB23_35
	.p2align	4, 0x90
.LBB23_34:                              # %"$3.i31"
                                        #   Parent Loop BB23_24 Depth=1
                                        # =>  This Inner Loop Header: Depth=2
	movq	%rax, %rsi
	movq	-4(%rax), %rdx
	movq	4(%rax), %rax
	shrdq	$63, %rdx, %rcx
	movq	%rcx, -4(%rsi)
	testb	$4, %al
	movq	%rdx, %rcx
	jne	.LBB23_34
.LBB23_35:                              # %"$4.i36"
                                        #   in Loop: Header=BB23_24 Depth=1
	movq	%rax, %rbx
	shrq	$4, %rbx
	shldq	$1, %rdx, %rbx
	testq	%rax, %rax
	jns	.LBB23_39
# %bb.36:                               # %"$5.i38"
                                        #   in Loop: Header=BB23_24 Depth=1
	movq	($Avail)(%rip), %rax
	testq	%rax, %rax
	jne	.LBB23_38
# %bb.37:                               # %"$2.i.i39"
                                        #   in Loop: Header=BB23_24 Depth=1
	subq	$32, %rsp
	callq	gc
	addq	$32, %rsp
	movq	($Avail)(%rip), %rax
.LBB23_38:                              # %boxNum.exit.i40
                                        #   in Loop: Header=BB23_24 Depth=1
	movq	(%rax), %rcx
	movq	%rcx, ($Avail)(%rip)
	movq	%rbx, (%rax)
	movq	$2, 8(%rax)
	addq	$4, %rax
	jmp	.LBB23_40
	.p2align	4, 0x90
.LBB23_43:                              # %"$39"
                                        #   in Loop: Header=BB23_41 Depth=1
	subq	$32, %rsp
	movq	%r15, %rcx
	movq	%rsi, %rdx
	callq	subu
	addq	$32, %rsp
	movq	%rax, %r15
	movq	%rax, (%rbx)
	subq	$32, %rsp
	movq	%rsi, %rcx
	movq	%rdi, %rdx
	callq	addu
	addq	$32, %rsp
	movq	%rax, %rcx
	movq	%rax, (%r13)
.LBB23_44:                              # %"$40"
                                        #   in Loop: Header=BB23_41 Depth=1
	subq	$32, %rsp
	callq	half
	addq	$32, %rsp
	movq	%rax, (%r13)
	subq	$32, %rsp
	movq	%rdi, %rcx
	callq	half
	movq	%rax, %rcx
	callq	half
	addq	$32, %rsp
	movq	%rax, %rdi
	movq	%rax, (%r12)
	cmpq	$2, %rax
	je	.LBB23_45
.LBB23_41:                              # %"$38"
                                        # =>This Inner Loop Header: Depth=1
	movq	(%r13), %rcx
	subq	$32, %rsp
	movq	%rdi, %rdx
	callq	addu
	addq	$32, %rsp
	movq	%rax, %rsi
	movq	%rax, (%r14)
	subq	$32, %rsp
	movq	%r15, %rcx
	movq	%rax, %rdx
	callq	cmpu
	addq	$32, %rsp
	testq	%rax, %rax
	jns	.LBB23_43
# %bb.42:                               # %"$38.$40_crit_edge"
                                        #   in Loop: Header=BB23_41 Depth=1
	movq	(%r13), %rcx
	jmp	.LBB23_44
.LBB23_15:                              # %"$21"
	movq	%rbx, %rax
	shrq	$4, %rax
	xorl	%edx, %edx
	xorl	%ecx, %ecx
	shrq	$62, %rbx
	setne	%dl
	sete	%cl
	shlq	$58, %rcx
	addq	%rax, %rcx
	movabsq	$-288230376151711744, %rax      # imm = 0xFC00000000000000
	addq	%rcx, %rax
	shlq	$58, %rdx
	movabsq	$72057594037927936, %rbx        # imm = 0x100000000000000
	leaq	(%rdx,%rbx), %rdi
	addq	%rdi, %rbx
	xorl	%ecx, %ecx
	cmpq	%rdi, %rax
	cmovbq	%rcx, %rdi
	cmovbq	%rdx, %rbx
	subq	%rdi, %rax
	shrq	%rbx
	movabsq	$18014398509481984, %rdx        # imm = 0x40000000000000
	leaq	(%rbx,%rdx), %rdi
	addq	%rdi, %rdx
	cmpq	%rdi, %rax
	cmovbq	%rcx, %rdi
	cmovbq	%rbx, %rdx
	subq	%rdi, %rax
	shrq	%rdx
	movabsq	$4503599627370496, %rbx         # imm = 0x10000000000000
	addq	%rdx, %rbx
	movabsq	$9007199254740992, %rdi         # imm = 0x20000000000000
	addq	%rdx, %rdi
	cmpq	%rbx, %rax
	cmovbq	%rcx, %rbx
	cmovbq	%rdx, %rdi
	subq	%rbx, %rax
	shrq	%rdi
	movabsq	$1125899906842624, %rdx         # imm = 0x4000000000000
	addq	%rdi, %rdx
	movabsq	$2251799813685248, %rbx         # imm = 0x8000000000000
	addq	%rdi, %rbx
	cmpq	%rdx, %rax
	cmovbq	%rcx, %rdx
	cmovbq	%rdi, %rbx
	subq	%rdx, %rax
	shrq	%rbx
	movabsq	$281474976710656, %rdx          # imm = 0x1000000000000
	addq	%rbx, %rdx
	movabsq	$562949953421312, %rdi          # imm = 0x2000000000000
	addq	%rbx, %rdi
	cmpq	%rdx, %rax
	cmovbq	%rcx, %rdx
	cmovbq	%rbx, %rdi
	subq	%rdx, %rax
	shrq	%rdi
	movabsq	$70368744177664, %rdx           # imm = 0x400000000000
	addq	%rdi, %rdx
	movabsq	$140737488355328, %rbx          # imm = 0x800000000000
	addq	%rdi, %rbx
	cmpq	%rdx, %rax
	cmovbq	%rcx, %rdx
	cmovbq	%rdi, %rbx
	subq	%rdx, %rax
	shrq	%rbx
	movabsq	$17592186044416, %rdx           # imm = 0x100000000000
	addq	%rbx, %rdx
	movabsq	$35184372088832, %rdi           # imm = 0x200000000000
	addq	%rbx, %rdi
	cmpq	%rdx, %rax
	cmovbq	%rcx, %rdx
	cmovbq	%rbx, %rdi
	subq	%rdx, %rax
	shrq	%rdi
	movabsq	$4398046511104, %rdx            # imm = 0x40000000000
	addq	%rdi, %rdx
	movabsq	$8796093022208, %rbx            # imm = 0x80000000000
	addq	%rdi, %rbx
	cmpq	%rdx, %rax
	cmovbq	%rcx, %rdx
	cmovbq	%rdi, %rbx
	subq	%rdx, %rax
	shrq	%rbx
	movabsq	$1099511627776, %rdx            # imm = 0x10000000000
	addq	%rbx, %rdx
	movabsq	$2199023255552, %rdi            # imm = 0x20000000000
	addq	%rbx, %rdi
	cmpq	%rdx, %rax
	cmovbq	%rcx, %rdx
	cmovbq	%rbx, %rdi
	subq	%rdx, %rax
	shrq	%rdi
	movabsq	$274877906944, %rdx             # imm = 0x4000000000
	addq	%rdi, %rdx
	movabsq	$549755813888, %rbx             # imm = 0x8000000000
	addq	%rdi, %rbx
	cmpq	%rdx, %rax
	cmovbq	%rcx, %rdx
	cmovbq	%rdi, %rbx
	subq	%rdx, %rax
	shrq	%rbx
	movabsq	$68719476736, %rdx              # imm = 0x1000000000
	addq	%rbx, %rdx
	movabsq	$137438953472, %rdi             # imm = 0x2000000000
	addq	%rbx, %rdi
	cmpq	%rdx, %rax
	cmovbq	%rcx, %rdx
	cmovbq	%rbx, %rdi
	subq	%rdx, %rax
	shrq	%rdi
	movabsq	$17179869184, %rdx              # imm = 0x400000000
	addq	%rdi, %rdx
	movabsq	$34359738368, %rbx              # imm = 0x800000000
	addq	%rdi, %rbx
	cmpq	%rdx, %rax
	cmovbq	%rcx, %rdx
	cmovbq	%rdi, %rbx
	subq	%rdx, %rax
	shrq	%rbx
	movabsq	$4294967296, %rdx               # imm = 0x100000000
	addq	%rbx, %rdx
	movabsq	$8589934592, %rsi               # imm = 0x200000000
	addq	%rbx, %rsi
	cmpq	%rdx, %rax
	cmovbq	%rcx, %rdx
	cmovbq	%rbx, %rsi
	subq	%rdx, %rax
	shrq	%rsi
	leaq	1073741824(%rsi), %rdx
	movq	%rsi, %rdi
	subq	$-2147483648, %rdi              # imm = 0x80000000
	cmpq	%rdx, %rax
	cmovbq	%rcx, %rdx
	cmovbq	%rsi, %rdi
	subq	%rdx, %rax
	shrq	%rdi
	leaq	268435456(%rdi), %rdx
	leaq	536870912(%rdi), %rbx
	cmpq	%rdx, %rax
	cmovbq	%rcx, %rdx
	cmovbq	%rdi, %rbx
	subq	%rdx, %rax
	shrq	%rbx
	leaq	67108864(%rbx), %rdx
	leaq	134217728(%rbx), %rdi
	cmpq	%rdx, %rax
	cmovbq	%rcx, %rdx
	cmovbq	%rbx, %rdi
	subq	%rdx, %rax
	shrq	%rdi
	leaq	16777216(%rdi), %rdx
	leaq	33554432(%rdi), %rbx
	cmpq	%rdx, %rax
	cmovbq	%rcx, %rdx
	cmovbq	%rdi, %rbx
	subq	%rdx, %rax
	shrq	%rbx
	leaq	4194304(%rbx), %rdx
	leaq	8388608(%rbx), %rdi
	cmpq	%rdx, %rax
	cmovbq	%rcx, %rdx
	cmovbq	%rbx, %rdi
	subq	%rdx, %rax
	shrq	%rdi
	leaq	1048576(%rdi), %rdx
	leaq	2097152(%rdi), %rbx
	cmpq	%rdx, %rax
	cmovbq	%rcx, %rdx
	cmovbq	%rdi, %rbx
	subq	%rdx, %rax
	shrq	%rbx
	leaq	262144(%rbx), %rdx
	leaq	524288(%rbx), %rdi
	cmpq	%rdx, %rax
	cmovbq	%rcx, %rdx
	cmovbq	%rbx, %rdi
	subq	%rdx, %rax
	shrq	%rdi
	leaq	65536(%rdi), %rdx
	leaq	131072(%rdi), %rbx
	cmpq	%rdx, %rax
	cmovbq	%rcx, %rdx
	cmovbq	%rdi, %rbx
	subq	%rdx, %rax
	shrq	%rbx
	leaq	16384(%rbx), %rdx
	leaq	32768(%rbx), %rdi
	cmpq	%rdx, %rax
	cmovbq	%rcx, %rdx
	cmovbq	%rbx, %rdi
	subq	%rdx, %rax
	shrq	%rdi
	leaq	4096(%rdi), %rdx
	leaq	8192(%rdi), %rbx
	cmpq	%rdx, %rax
	cmovbq	%rcx, %rdx
	cmovbq	%rdi, %rbx
	subq	%rdx, %rax
	shrq	%rbx
	leaq	1024(%rbx), %rdx
	leaq	2048(%rbx), %rdi
	cmpq	%rdx, %rax
	cmovbq	%rcx, %rdx
	cmovbq	%rbx, %rdi
	subq	%rdx, %rax
	shrq	%rdi
	leaq	256(%rdi), %rdx
	leaq	512(%rdi), %rbx
	cmpq	%rdx, %rax
	cmovbq	%rcx, %rdx
	cmovbq	%rdi, %rbx
	subq	%rdx, %rax
	shrq	%rbx
	leaq	64(%rbx), %rdx
	leaq	128(%rbx), %rdi
	cmpq	%rdx, %rax
	cmovbq	%rcx, %rdx
	cmovbq	%rbx, %rdi
	subq	%rdx, %rax
	shrq	%rdi
	leaq	16(%rdi), %rdx
	leaq	32(%rdi), %rbx
	cmpq	%rdx, %rax
	cmovbq	%rcx, %rdx
	cmovbq	%rdi, %rbx
	subq	%rdx, %rax
	shrq	%rbx
	leaq	4(%rbx), %rdx
	leaq	8(%rbx), %rdi
	cmpq	%rdx, %rax
	cmovbq	%rcx, %rdx
	cmovbq	%rbx, %rdi
	subq	%rdx, %rax
	shrq	%rdi
	leaq	2(%rdi), %rdx
	cmpq	%rdi, %rax
	cmovbeq	%rdi, %rdx
	notq	%rdi
	cmovbeq	%rcx, %rdi
	addq	%rax, %rdi
	shrq	%rdx
	leaq	SymTab+8(%rip), %rax
	cmpq	%rax, %r14
	setne	%al
	cmpq	%rdi, %rdx
	setb	%cl
	andb	%al, %cl
	movzbl	%cl, %edi
	addq	%rdx, %rdi
	shlq	$4, %rdi
	orq	$2, %rdi
	movq	(%rbp), %rbx                    # 8-byte Reload
	jmp	.LBB23_48
.LBB23_45:                              # %"$42"
	movq	(%r13), %rdi
	leaq	SymTab+8(%rip), %rax
	cmpq	%rax, -8(%rbp)                  # 8-byte Folded Reload
	je	.LBB23_48
# %bb.46:                               # %"$44"
	subq	$32, %rsp
	movq	%rdi, %rcx
	movq	%r15, %rdx
	callq	cmpu
	addq	$32, %rsp
	testq	%rax, %rax
	jns	.LBB23_48
# %bb.47:                               # %"$46"
	subq	$32, %rsp
	movl	$18, %edx
	movq	%rdi, %rcx
	callq	addu
	addq	$32, %rsp
	movq	%rax, %rdi
.LBB23_48:                              # %"$23"
	movq	8(%rbx), %rax
	movq	%rax, env(%rip)
.LBB23_49:                              # %"$9"
	movq	%rdi, %rax
	leaq	8(%rbp), %rsp
	popq	%rbx
	popq	%rdi
	popq	%rsi
	popq	%r12
	popq	%r13
	popq	%r14
	popq	%r15
	popq	%rbp
	retq
.LBB23_50:                              # %"$10"
	subq	$32, %rsp
	movq	%r14, %rcx
	movq	%rbx, %rdx
	callq	numErr
.LBB23_51:                              # %"$12"
	subq	$32, %rsp
	movq	%r14, %rcx
	movq	%rbx, %rdx
	callq	argErr
	int3
	.seh_handlerdata
	.text
	.seh_endproc
                                        # -- End function
	.def	 _seed;
	.scl	2;
	.type	32;
	.endef
	.globl	_seed                           # -- Begin function _seed
	.p2align	4, 0x90
_seed:                                  # @_seed
.seh_proc _seed
# %bb.0:                                # %"$1"
	subq	$40, %rsp
	.seh_stackalloc 40
	.seh_endprologue
	movq	8(%rcx), %rax
	movq	(%rax), %rcx
	testb	$6, %cl
	jne	.LBB24_4
# %bb.1:                                # %"$3"
	testb	$8, %cl
	jne	.LBB24_2
# %bb.3:                                # %"$5"
	callq	evList
	movq	%rax, %rcx
	jmp	.LBB24_4
.LBB24_2:                               # %"$6"
	movq	(%rcx), %rcx
.LBB24_4:                               # %"$2"
	callq	initSeed
	movabsq	$6364136223846793005, %rcx      # imm = 0x5851F42D4C957F2D
	mulq	%rcx
	movq	%rax, ($SeedL)(%rip)
	movq	%rdx, ($SeedH)(%rip)
	shrq	$32, %rax
	leaq	2(,%rax,8), %rax
	addq	$40, %rsp
	retq
	.seh_handlerdata
	.text
	.seh_endproc
                                        # -- End function
	.def	 _hash;
	.scl	2;
	.type	32;
	.endef
	.globl	_hash                           # -- Begin function _hash
	.p2align	4, 0x90
_hash:                                  # @_hash
.seh_proc _hash
# %bb.0:                                # %"$1"
	subq	$40, %rsp
	.seh_stackalloc 40
	.seh_endprologue
	movq	8(%rcx), %rax
	movq	(%rax), %rcx
	testb	$6, %cl
	jne	.LBB25_4
# %bb.1:                                # %"$3"
	testb	$8, %cl
	jne	.LBB25_2
# %bb.3:                                # %"$5"
	callq	evList
	movq	%rax, %rcx
	jmp	.LBB25_4
.LBB25_2:                               # %"$6"
	movq	(%rcx), %rcx
.LBB25_4:                               # %"$2"
	callq	initSeed
	movq	%rax, %rcx
	movq	$-64, %r8
	xorl	%eax, %eax
	.p2align	4, 0x90
.LBB25_5:                               # %"$7"
                                        # =>This Inner Loop Header: Depth=1
	movl	%eax, %r9d
	xorl	%ecx, %r9d
	shrq	%rcx
	movq	%rax, %rdx
	shrq	%rdx
	movq	%rdx, %rax
	xorq	$40961, %rax                    # imm = 0xA001
	testb	$1, %r9b
	cmoveq	%rdx, %rax
	incq	%r8
	jne	.LBB25_5
# %bb.6:                                # %"$11"
	shlq	$4, %rax
	addq	$18, %rax
	addq	$40, %rsp
	retq
	.seh_handlerdata
	.text
	.seh_endproc
                                        # -- End function
	.def	 _rand;
	.scl	2;
	.type	32;
	.endef
	.globl	_rand                           # -- Begin function _rand
	.p2align	4, 0x90
_rand:                                  # @_rand
.seh_proc _rand
# %bb.0:                                # %"$1"
	pushq	%rsi
	.seh_pushreg %rsi
	pushq	%rdi
	.seh_pushreg %rdi
	pushq	%rbx
	.seh_pushreg %rbx
	subq	$32, %rsp
	.seh_stackalloc 32
	.seh_endprologue
	movq	%rcx, %rdi
	movq	8(%rcx), %rax
	movq	(%rax), %rsi
	movq	8(%rax), %rbx
	testb	$6, %sil
	jne	.LBB26_4
# %bb.1:                                # %"$3"
	testb	$8, %sil
	jne	.LBB26_2
# %bb.3:                                # %"$5"
	movq	%rsi, %rcx
	callq	evList
	movq	%rax, %rsi
	jmp	.LBB26_4
.LBB26_2:                               # %"$6"
	movq	(%rsi), %rsi
.LBB26_4:                               # %"$2"
	movabsq	$6364136223846793005, %rax      # imm = 0x5851F42D4C957F2D
	mulq	($SeedL)(%rip)
	addq	$1, %rax
	movq	%rax, ($SeedL)(%rip)
	adcq	$0, %rdx
	movq	%rdx, ($SeedH)(%rip)
	leaq	SymTab+8(%rip), %rcx
	cmpq	%rcx, %rsi
	jne	.LBB26_6
# %bb.5:                                # %"$9"
	shrq	$32, %rax
	leaq	2(,%rax,8), %rax
	jmp	.LBB26_20
.LBB26_6:                               # %"$8"
	leaq	SymTab+280(%rip), %rdx
	cmpq	%rdx, %rsi
	jne	.LBB26_8
# %bb.7:                                # %"$11"
	addq	%rax, %rax
	cmovbq	%rdx, %rcx
	movq	%rcx, %rax
	jmp	.LBB26_20
.LBB26_8:                               # %"$10"
	testb	$2, %sil
	je	.LBB26_21
# %bb.9:                                # %"$16"
	testb	$8, %sil
	jne	.LBB26_22
# %bb.10:                               # %"$18"
	movq	(%rbx), %rax
	testb	$6, %al
	jne	.LBB26_14
# %bb.11:                               # %"$20"
	testb	$8, %al
	jne	.LBB26_12
# %bb.13:                               # %"$22"
	movq	%rax, %rcx
	callq	evList
	jmp	.LBB26_14
.LBB26_12:                              # %"$23"
	movq	(%rax), %rax
.LBB26_14:                              # %"$19"
	testb	$2, %al
	je	.LBB26_23
# %bb.15:                               # %"$25"
	testb	$8, %al
	jne	.LBB26_24
# %bb.16:                               # %"$27"
	shrq	$4, %rsi
	movq	%rax, %rcx
	shrq	$4, %rcx
	subq	%rsi, %rcx
	jb	.LBB26_24
# %bb.17:                               # %"$29"
	movq	($SeedH)(%rip), %rdx
	movq	($SeedL)(%rip), %rax
	shrdq	$32, %rdx, %rax
	incq	%rcx
	xorl	%edx, %edx
	divq	%rcx
	addq	%rsi, %rdx
	movq	%rdx, %rax
	shlq	$4, %rax
	testq	%rdx, %rdx
	js	.LBB26_18
# %bb.19:                               # %"$31"
	orq	$2, %rax
	jmp	.LBB26_20
.LBB26_18:                              # %"$30"
	negq	%rax
	orq	$10, %rax
.LBB26_20:                              # %"$7"
	addq	$32, %rsp
	popq	%rbx
	popq	%rdi
	popq	%rsi
	retq
.LBB26_24:                              # %"$26"
	movq	%rdi, %rcx
	movq	%rax, %rdx
	callq	argErr
.LBB26_21:                              # %"$15"
	movq	%rdi, %rcx
	movq	%rsi, %rdx
	callq	cntErr
.LBB26_22:                              # %"$17"
	movq	%rdi, %rcx
	movq	%rsi, %rdx
	callq	argErr
.LBB26_23:                              # %"$24"
	movq	%rdi, %rcx
	movq	%rax, %rdx
	callq	cntErr
	int3
	.seh_handlerdata
	.text
	.seh_endproc
                                        # -- End function
	.def	 _name;
	.scl	2;
	.type	32;
	.endef
	.globl	_name                           # -- Begin function _name
	.p2align	4, 0x90
_name:                                  # @_name
.seh_proc _name
# %bb.0:                                # %"$1"
	pushq	%rbp
	.seh_pushreg %rbp
	pushq	%rsi
	.seh_pushreg %rsi
	pushq	%rdi
	.seh_pushreg %rdi
	movq	%rsp, %rbp
	.seh_setframe %rbp, 0
	.seh_endprologue
	movq	%rcx, %rsi
	movq	8(%rcx), %rax
	movq	(%rax), %rax
	testb	$6, %al
	jne	.LBB27_4
# %bb.1:                                # %"$3"
	testb	$8, %al
	jne	.LBB27_2
# %bb.3:                                # %"$5"
	subq	$32, %rsp
	movq	%rax, %rcx
	callq	evList
	addq	$32, %rsp
	jmp	.LBB27_4
.LBB27_2:                               # %"$6"
	movq	(%rax), %rax
.LBB27_4:                               # %"$2"
	movl	%eax, %ecx
	andl	$14, %ecx
	cmpl	$8, %ecx
	jne	.LBB27_19
# %bb.5:                                # %"$8"
	movq	-8(%rax), %rcx
	testb	$8, %cl
	jne	.LBB27_6
	.p2align	4, 0x90
# %bb.13:                               # %"$16"
	testb	$6, %cl
	jne	.LBB27_14
.LBB27_12:                              # %"$16"
                                        # =>This Inner Loop Header: Depth=1
	movq	8(%rcx), %rcx
	testb	$6, %cl
	je	.LBB27_12
.LBB27_14:                              # %"$17"
	cmpq	$2, %rcx
	jne	.LBB27_20
# %bb.15:
	leaq	SymTab+8(%rip), %rax
	jmp	.LBB27_18
.LBB27_6:                               # %"$9"
	movl	$32, %eax
	callq	___chkstk_ms
	subq	%rax, %rsp
	movq	%rsp, %rsi
	movq	$4, (%rsi)
	leaq	16(%rsi), %rax
	movq	$2, 16(%rsi)
	movq	env(%rip), %rdx
	movq	%rdx, 24(%rsi)
	movq	%rax, env(%rip)
	movq	%rcx, %rdi
	andq	$-9, %rdi
	testb	$6, %cl
	jne	.LBB27_8
	.p2align	4, 0x90
.LBB27_7:                               # %"$13"
                                        # =>This Inner Loop Header: Depth=1
	movq	8(%rdi), %rdi
	testb	$6, %dil
	je	.LBB27_7
.LBB27_8:                               # %"$14"
	movl	%edi, %eax
	shrl	$24, %eax
	movq	%rdi, %rcx
	shrq	$36, %rcx
	andl	$65280, %ecx                    # imm = 0xFF00
	orl	%eax, %ecx
	je	.LBB27_10
# %bb.9:                                # %"$2.i"
	subq	$32, %rsp
                                        # kill: def $ecx killed $ecx killed $rcx
	movq	%rsi, %rdx
	callq	packAO
	addq	$32, %rsp
.LBB27_10:                              # %packExtNm.exit
	movl	%edi, %eax
	shrl	$4, %eax
	andl	$1048575, %eax                  # imm = 0xFFFFF
	movq	%rdi, %rdx
	shrq	$12, %rdx
	andl	$-1048576, %edx                 # imm = 0xFFF00000
	orq	%rax, %rdx
	shrq	$20, %rdi
	movabsq	$4393751543808, %rcx            # imm = 0x3FF00000000
	andq	%rdi, %rcx
	orq	%rdx, %rcx
	subq	$32, %rsp
	movq	%rsi, %rdx
	callq	packOct
	addq	$32, %rsp
	movq	16(%rsi), %rcx
	cmpq	$2, %rcx
	jne	.LBB27_16
# %bb.11:
	leaq	SymTab+8(%rip), %rax
	jmp	.LBB27_17
.LBB27_20:                              # %"$3.i5"
	xorl	%edx, %edx
	movq	%rbp, %rsp
	popq	%rdi
	popq	%rsi
	popq	%rbp
	jmp	consSym                         # TAILCALL
.LBB27_16:                              # %"$3.i"
	subq	$32, %rsp
	xorl	%edx, %edx
	callq	consSym
	addq	$32, %rsp
.LBB27_17:                              # %consStr.exit
	movq	24(%rsi), %rcx
	movq	%rcx, env(%rip)
.LBB27_18:                              # %"$11"
	movq	%rbp, %rsp
	popq	%rdi
	popq	%rsi
	popq	%rbp
	retq
.LBB27_19:                              # %"$7"
	subq	$32, %rsp
	movq	%rsi, %rcx
	movq	%rax, %rdx
	callq	symErr
	int3
	.seh_handlerdata
	.text
	.seh_endproc
                                        # -- End function
	.def	 _nsp;
	.scl	2;
	.type	32;
	.endef
	.globl	_nsp                            # -- Begin function _nsp
	.p2align	4, 0x90
_nsp:                                   # @_nsp
.seh_proc _nsp
# %bb.0:                                # %"$1"
	pushq	%r15
	.seh_pushreg %r15
	pushq	%r14
	.seh_pushreg %r14
	pushq	%rsi
	.seh_pushreg %rsi
	pushq	%rdi
	.seh_pushreg %rdi
	pushq	%rbx
	.seh_pushreg %rbx
	subq	$32, %rsp
	.seh_stackalloc 32
	.seh_endprologue
	movq	%rcx, %rdi
	movq	8(%rcx), %rax
	movq	(%rax), %r15
	testb	$6, %r15b
	jne	.LBB28_4
# %bb.1:                                # %"$3"
	testb	$8, %r15b
	jne	.LBB28_3
# %bb.2:                                # %"$5"
	movq	%r15, %rcx
	callq	evList
	movq	%rax, %r15
	jmp	.LBB28_4
.LBB28_3:                               # %"$6"
	movq	(%r15), %r15
.LBB28_4:                               # %"$2"
	movl	%r15d, %eax
	andl	$14, %eax
	cmpl	$8, %eax
	jne	.LBB28_15
# %bb.5:                                # %"$8"
	movq	-8(%r15), %rdi
	leaq	SymTab+8(%rip), %r14
	testb	$8, %dil
	jne	.LBB28_12
	.p2align	4, 0x90
# %bb.6:                                # %"$12.preheader"
	testb	$6, %dil
	jne	.LBB28_8
.LBB28_7:                               # %"$13"
                                        # =>This Inner Loop Header: Depth=1
	movq	8(%rdi), %rdi
	testb	$6, %dil
	je	.LBB28_7
.LBB28_8:                               # %"$15.preheader"
	movq	gcData(%rip), %rsi
	testb	$15, %sil
	je	.LBB28_11
.LBB28_12:
	movq	%r14, %rbx
.LBB28_13:                              # %"$11"
	movq	%rbx, %rax
	addq	$32, %rsp
	popq	%rbx
	popq	%rdi
	popq	%rsi
	popq	%r14
	popq	%r15
	retq
	.p2align	4, 0x90
.LBB28_10:                              # %"$15"
                                        #   in Loop: Header=BB28_11 Depth=1
	movq	8(%rsi), %rsi
	testb	$15, %sil
	jne	.LBB28_12
.LBB28_11:                              # %"$16"
                                        # =>This Inner Loop Header: Depth=1
	movq	(%rsi), %rbx
	movq	(%rbx), %rax
	movq	8(%rax), %rdx
	movq	%rdi, %rcx
	callq	isIntern
	cmpq	%rax, %r15
	jne	.LBB28_10
	jmp	.LBB28_13
.LBB28_15:                              # %"$7"
	movq	%rdi, %rcx
	movq	%r15, %rdx
	callq	symErr
	int3
	.seh_handlerdata
	.text
	.seh_endproc
                                        # -- End function
	.def	 _spQ;
	.scl	2;
	.type	32;
	.endef
	.globl	_spQ                            # -- Begin function _spQ
	.p2align	4, 0x90
_spQ:                                   # @_spQ
.seh_proc _spQ
# %bb.0:                                # %"$1"
	subq	$40, %rsp
	.seh_stackalloc 40
	.seh_endprologue
	movq	8(%rcx), %rax
	movq	(%rax), %rcx
	testb	$6, %cl
	jne	.LBB29_4
# %bb.1:                                # %"$3"
	testb	$8, %cl
	jne	.LBB29_2
# %bb.3:                                # %"$5"
	callq	evList
	movq	%rax, %rcx
	jmp	.LBB29_4
.LBB29_2:                               # %"$6"
	movq	(%rcx), %rcx
.LBB29_4:                               # %"$2"
	leaq	SymTab+280(%rip), %rax
	leaq	SymTab+8(%rip), %r8
	cmpq	%r8, %rcx
	je	.LBB29_18
# %bb.5:                                # %"$3.i"
	movl	%ecx, %edx
	andl	$14, %edx
	cmpl	$8, %edx
	jne	.LBB29_17
# %bb.6:                                # %"$5.i"
	movq	-8(%rcx), %r9
	testb	$8, %r9b
	jne	.LBB29_17
	.p2align	4, 0x90
# %bb.8:                                # %"$8.i"
	testb	$6, %r9b
	jne	.LBB29_9
.LBB29_7:                               # %"$8.i"
                                        # =>This Inner Loop Header: Depth=1
	movq	8(%r9), %r9
	testb	$6, %r9b
	je	.LBB29_7
.LBB29_9:                               # %"$10.i.preheader"
	xorl	%edx, %edx
	.p2align	4, 0x90
.LBB29_10:                              # %"$10.i"
                                        # =>This Inner Loop Header: Depth=1
	testq	%rdx, %rdx
	jne	.LBB29_15
# %bb.11:                               # %"$2.i.i"
                                        #   in Loop: Header=BB29_10 Depth=1
	cmpq	$2, %r9
	je	.LBB29_18
# %bb.12:                               # %"$5.i.i"
                                        #   in Loop: Header=BB29_10 Depth=1
	testb	$2, %r9b
	jne	.LBB29_13
# %bb.14:                               # %"$7.i.i"
                                        #   in Loop: Header=BB29_10 Depth=1
	movq	-4(%r9), %rdx
	movq	4(%r9), %r9
	jmp	.LBB29_15
.LBB29_13:                              # %"$8.i.i"
                                        #   in Loop: Header=BB29_10 Depth=1
	movq	%r9, %rdx
	shrq	$4, %rdx
	movl	$2, %r9d
	.p2align	4, 0x90
.LBB29_15:                              # %symByte.exit.i
                                        #   in Loop: Header=BB29_10 Depth=1
	testb	%dl, %dl
	je	.LBB29_18
# %bb.16:                               # %"$11.i"
                                        #   in Loop: Header=BB29_10 Depth=1
	movq	%rdx, %rcx
	shrq	$8, %rcx
	cmpb	$33, %dl
	movq	%rcx, %rdx
	jb	.LBB29_10
.LBB29_17:
	movq	%r8, %rax
.LBB29_18:                              # %isBlank.exit
	addq	$40, %rsp
	retq
	.seh_handlerdata
	.text
	.seh_endproc
                                        # -- End function
	.def	 _patQ;
	.scl	2;
	.type	32;
	.endef
	.globl	_patQ                           # -- Begin function _patQ
	.p2align	4, 0x90
_patQ:                                  # @_patQ
.seh_proc _patQ
# %bb.0:                                # %"$1"
	pushq	%rsi
	.seh_pushreg %rsi
	subq	$32, %rsp
	.seh_stackalloc 32
	.seh_endprologue
	movq	8(%rcx), %rax
	movq	(%rax), %rsi
	testb	$6, %sil
	jne	.LBB30_4
# %bb.1:                                # %"$3"
	testb	$8, %sil
	jne	.LBB30_2
# %bb.3:                                # %"$5"
	movq	%rsi, %rcx
	callq	evList
	movq	%rax, %rsi
	jmp	.LBB30_4
.LBB30_2:                               # %"$6"
	movq	(%rsi), %rsi
.LBB30_4:                               # %"$2"
	movl	%esi, %eax
	andl	$14, %eax
	cmpl	$8, %eax
	jne	.LBB30_5
# %bb.6:                                # %"$8"
	movq	%rsi, %rcx
	callq	firstChar
	cmpl	$64, %eax
	leaq	SymTab+8(%rip), %rax
	cmoveq	%rsi, %rax
	jmp	.LBB30_7
.LBB30_5:
	leaq	SymTab+8(%rip), %rax
.LBB30_7:                               # %"$7"
	addq	$32, %rsp
	popq	%rsi
	retq
	.seh_handlerdata
	.text
	.seh_endproc
                                        # -- End function
	.def	 _funQ;
	.scl	2;
	.type	32;
	.endef
	.globl	_funQ                           # -- Begin function _funQ
	.p2align	4, 0x90
_funQ:                                  # @_funQ
.seh_proc _funQ
# %bb.0:                                # %"$1"
	subq	$40, %rsp
	.seh_stackalloc 40
	.seh_endprologue
	movq	8(%rcx), %rax
	movq	(%rax), %rcx
	testb	$6, %cl
	jne	.LBB31_4
# %bb.1:                                # %"$3"
	testb	$8, %cl
	jne	.LBB31_2
# %bb.3:                                # %"$5"
	callq	evList
	movq	%rax, %rcx
	jmp	.LBB31_4
.LBB31_2:                               # %"$6"
	movq	(%rcx), %rcx
.LBB31_4:                               # %"$2"
	callq	funq
	testq	%rax, %rax
	leaq	SymTab+8(%rip), %rcx
	cmoveq	%rcx, %rax
	addq	$40, %rsp
	retq
	.seh_handlerdata
	.text
	.seh_endproc
                                        # -- End function
	.def	 _getd;
	.scl	2;
	.type	32;
	.endef
	.globl	_getd                           # -- Begin function _getd
	.p2align	4, 0x90
_getd:                                  # @_getd
.seh_proc _getd
# %bb.0:                                # %"$1"
	pushq	%rsi
	.seh_pushreg %rsi
	pushq	%rdi
	.seh_pushreg %rdi
	pushq	%rbx
	.seh_pushreg %rbx
	subq	$32, %rsp
	.seh_stackalloc 32
	.seh_endprologue
	movq	8(%rcx), %rax
	movq	(%rax), %rsi
	testb	$6, %sil
	jne	.LBB32_4
# %bb.1:                                # %"$3"
	testb	$8, %sil
	jne	.LBB32_2
# %bb.3:                                # %"$5"
	movq	%rsi, %rcx
	callq	evList
	movq	%rax, %rsi
	jmp	.LBB32_4
.LBB32_2:                               # %"$6"
	movq	(%rsi), %rsi
.LBB32_4:                               # %"$2"
	movl	%esi, %eax
	andl	$14, %eax
	cmpl	$8, %eax
	jne	.LBB32_5
# %bb.6:                                # %"$8"
	movq	(%rsi), %rbx
	movq	%rbx, %rcx
	callq	funq
	testq	%rax, %rax
	je	.LBB32_8
# %bb.7:
	movq	%rbx, %rdi
	jmp	.LBB32_11
.LBB32_5:
	leaq	SymTab+8(%rip), %rdi
.LBB32_11:                              # %"$7"
	movq	%rdi, %rax
	addq	$32, %rsp
	popq	%rbx
	popq	%rdi
	popq	%rsi
	retq
.LBB32_8:                               # %"$10"
	leaq	SymTab+8(%rip), %rdi
	cmpq	%rdi, %rbx
	jne	.LBB32_11
# %bb.9:                                # %"$13"
	movq	%rsi, %rcx
	callq	sharedLib
	testb	$1, %al
	je	.LBB32_11
# %bb.10:                               # %"$15"
	movq	(%rsi), %rdi
	jmp	.LBB32_11
	.seh_handlerdata
	.text
	.seh_endproc
                                        # -- End function
	.def	 _all;
	.scl	2;
	.type	32;
	.endef
	.globl	_all                            # -- Begin function _all
	.p2align	4, 0x90
_all:                                   # @_all
.seh_proc _all
# %bb.0:                                # %"$1"
	pushq	%rsi
	.seh_pushreg %rsi
	pushq	%rdi
	.seh_pushreg %rdi
	subq	$40, %rsp
	.seh_stackalloc 40
	.seh_endprologue
	movq	8(%rcx), %rax
	movq	(%rax), %rcx
	testb	$6, %cl
	jne	.LBB33_4
# %bb.1:                                # %"$3"
	testb	$8, %cl
	jne	.LBB33_2
# %bb.3:                                # %"$5"
	callq	evList
	movq	%rax, %rcx
	jmp	.LBB33_4
.LBB33_2:                               # %"$6"
	movq	(%rcx), %rcx
.LBB33_4:                               # %"$2"
	leaq	SymTab+8(%rip), %rax
	cmpq	%rax, %rcx
	jne	.LBB33_7
# %bb.5:                                # %"$9"
	leaq	SymTab+8(%rip), %rax
	movq	gcData(%rip), %rdi
	.p2align	4, 0x90
.LBB33_6:                               # %"$10"
                                        # =>This Inner Loop Header: Depth=1
	movq	(%rdi), %rcx
	movq	8(%rdi), %rdi
	movq	(%rcx), %rcx
	movq	8(%rcx), %rcx
	movq	(%rcx), %rsi
	movq	8(%rcx), %rcx
	movq	%rax, %rdx
	callq	consTree
	movq	%rsi, %rcx
	movq	%rax, %rdx
	callq	consTree
	testb	$15, %dil
	je	.LBB33_6
.LBB33_25:                              # %"$7"
	addq	$40, %rsp
	popq	%rdi
	popq	%rsi
	retq
.LBB33_7:                               # %"$8"
	leaq	SymTab+280(%rip), %rdx
	cmpq	%rdx, %rcx
	jne	.LBB33_10
# %bb.8:                                # %"$15"
	movq	gcData+8(%rip), %rsi
	movq	gcData+16(%rip), %rcx
.LBB33_9:                               # %"$15"
	leaq	SymTab+8(%rip), %rdx
	callq	consTree
	movq	%rsi, %rcx
	movq	%rax, %rdx
	jmp	.LBB33_12
.LBB33_10:                              # %"$14"
	testb	$6, %cl
	je	.LBB33_13
# %bb.11:                               # %"$17"
	movq	($Extern)(%rip), %rcx
	leaq	SymTab+8(%rip), %rdx
.LBB33_12:                              # %"$17"
	addq	$40, %rsp
	popq	%rdi
	popq	%rsi
	jmp	consTree                        # TAILCALL
.LBB33_13:                              # %"$16"
	testb	$8, %cl
	jne	.LBB33_14
# %bb.16:                               # %"$18"
	movq	(%rcx), %rdi
	leaq	SymTab+8(%rip), %rax
	cmpq	%rax, %rdi
	jne	.LBB33_20
# %bb.17:                               # %"$24"
	movq	gcData(%rip), %rdx
	movq	(%rdx), %rdx
	movq	(%rdx), %rdx
	cmpq	%rax, 8(%rcx)
	jne	.LBB33_19
# %bb.18:                               # %"$25"
	movq	(%rdx), %rax
	jmp	.LBB33_25
.LBB33_14:                              # %"$19"
	movq	(%rcx), %rcx
	movq	8(%rcx), %rcx
	testb	$15, %cl
	jne	.LBB33_25
# %bb.15:                               # %"$20"
	movq	(%rcx), %rsi
	movq	8(%rcx), %rcx
	jmp	.LBB33_9
.LBB33_20:                              # %"$23"
	cmpq	%rdx, %rdi
	jne	.LBB33_24
# %bb.21:                               # %"$29"
	cmpq	%rax, 8(%rcx)
	jne	.LBB33_23
# %bb.22:                               # %"$30"
	movq	gcData+8(%rip), %rax
	jmp	.LBB33_25
.LBB33_19:                              # %"$26"
	movq	8(%rdx), %rax
	jmp	.LBB33_25
.LBB33_24:                              # %"$28"
	movq	($Extern)(%rip), %rax
	jmp	.LBB33_25
.LBB33_23:                              # %"$31"
	movq	gcData+16(%rip), %rax
	jmp	.LBB33_25
	.seh_handlerdata
	.text
	.seh_endproc
                                        # -- End function
	.def	 _symbols;
	.scl	2;
	.type	32;
	.endef
	.globl	_symbols                        # -- Begin function _symbols
	.p2align	4, 0x90
_symbols:                               # @_symbols
.seh_proc _symbols
# %bb.0:                                # %"$1"
	pushq	%rbp
	.seh_pushreg %rbp
	pushq	%r15
	.seh_pushreg %r15
	pushq	%r14
	.seh_pushreg %r14
	pushq	%r13
	.seh_pushreg %r13
	pushq	%r12
	.seh_pushreg %r12
	pushq	%rsi
	.seh_pushreg %rsi
	pushq	%rdi
	.seh_pushreg %rdi
	pushq	%rbx
	.seh_pushreg %rbx
	pushq	%rax
	.seh_stackalloc 8
	movq	%rsp, %rbp
	.seh_setframe %rbp, 0
	.seh_endprologue
	movq	8(%rcx), %rax
	testb	$15, %al
	je	.LBB34_2
# %bb.1:                                # %"$2"
	movq	gcData(%rip), %rsi
	jmp	.LBB34_43
.LBB34_2:                               # %"$3"
	movq	%rcx, %r12
	movq	(%rax), %rdi
	movq	8(%rax), %rbx
	testb	$6, %dil
	jne	.LBB34_6
# %bb.3:                                # %"$6"
	testb	$8, %dil
	jne	.LBB34_4
# %bb.5:                                # %"$8"
	subq	$32, %rsp
	movq	%rdi, %rcx
	callq	evList
	addq	$32, %rsp
	movq	%rax, %rdi
.LBB34_6:                               # %"$5"
	testb	$15, %dil
	je	.LBB34_7
.LBB34_24:                              # %"$11"
	movl	%edi, %eax
	andl	$14, %eax
	cmpl	$8, %eax
	jne	.LBB34_46
# %bb.25:                               # %"$38"
	movq	(%rdi), %rax
	leaq	SymTab+8(%rip), %rcx
	cmpq	%rcx, %rax
	je	.LBB34_27
# %bb.26:                               # %"$38"
	cmpq	%rdi, %rax
	je	.LBB34_27
# %bb.30:                               # %"$41"
	testb	$15, %al
	jne	.LBB34_48
# %bb.31:                               # %"$48"
	leaq	SymTab+40(%rip), %rcx
	cmpq	%rcx, (%rax)
	je	.LBB34_32
.LBB34_48:                              # %"$49"
	subq	$32, %rsp
	movq	%r12, %rcx
	movq	%rdi, %rdx
	callq	symNspErr
.LBB34_27:                              # %"$40"
	cmpq	%rcx, %rdi
	jb	.LBB34_29
# %bb.28:                               # %"$40"
	leaq	SymTab+280(%rip), %rax
	cmpq	%rax, %rdi
	jbe	.LBB34_47
.LBB34_29:                              # %"$46"
	subq	$32, %rsp
	leaq	SymTab+8(%rip), %rcx
	movq	%rcx, %rdx
	callq	cons
	leaq	SymTab+40(%rip), %rcx
	movq	%rax, %rdx
	callq	cons
	addq	$32, %rsp
	movq	%rax, (%rdi)
.LBB34_32:                              # %"$42"
	subq	$32, %rsp
	leaq	SymTab+8(%rip), %rdx
	movq	%rdi, %rcx
	callq	cons
	addq	$32, %rsp
	movq	%rax, %r14
	movq	env(%rip), %rcx
	movl	$16, %eax
	callq	___chkstk_ms
	subq	%rax, %rsp
	movq	%rsp, %r15
	movq	%r14, (%r15)
	movq	%r15, %rax
	orq	$8, %rax
	movq	%rcx, (%rax)
	movq	%r15, env(%rip)
	testb	$15, %bl
	jne	.LBB34_42
# %bb.33:                               # %"$52.preheader"
	leaq	SymTab+40(%rip), %r13
	leaq	SymTab+8(%rip), %rdi
	movq	%r14, %rsi
	.p2align	4, 0x90
.LBB34_34:                              # %"$52"
                                        # =>This Inner Loop Header: Depth=1
	movq	(%rbx), %rax
	movq	8(%rbx), %rbx
	testb	$6, %al
	jne	.LBB34_38
# %bb.35:                               # %"$55"
                                        #   in Loop: Header=BB34_34 Depth=1
	testb	$8, %al
	jne	.LBB34_36
# %bb.37:                               # %"$57"
                                        #   in Loop: Header=BB34_34 Depth=1
	subq	$32, %rsp
	movq	%rax, %rcx
	callq	evList
	addq	$32, %rsp
	jmp	.LBB34_38
.LBB34_36:                              # %"$58"
                                        #   in Loop: Header=BB34_34 Depth=1
	movq	(%rax), %rax
	.p2align	4, 0x90
.LBB34_38:                              # %"$54"
                                        #   in Loop: Header=BB34_34 Depth=1
	movl	%eax, %ecx
	andl	$14, %ecx
	cmpl	$8, %ecx
	jne	.LBB34_49
# %bb.39:                               # %"$60"
                                        #   in Loop: Header=BB34_34 Depth=1
	movq	(%rax), %rcx
	testb	$15, %cl
	jne	.LBB34_50
# %bb.40:                               # %"$62"
                                        #   in Loop: Header=BB34_34 Depth=1
	cmpq	%r13, (%rcx)
	jne	.LBB34_50
# %bb.41:                               # %"$64"
                                        #   in Loop: Header=BB34_34 Depth=1
	subq	$32, %rsp
	movq	%rax, %rcx
	movq	%rdi, %rdx
	callq	cons
	addq	$32, %rsp
	movq	%rax, 8(%rsi)
	testb	$15, %bl
	movq	%rax, %rsi
	je	.LBB34_34
.LBB34_42:                              # %"$53"
	movq	gcData(%rip), %rsi
	movq	%r14, gcData(%rip)
	movq	8(%r15), %rax
	movq	%rax, env(%rip)
	jmp	.LBB34_43
.LBB34_4:                               # %"$9"
	movq	(%rdi), %rdi
	testb	$15, %dil
	jne	.LBB34_24
.LBB34_7:                               # %"$13.preheader"
	leaq	SymTab+40(%rip), %rax
	movq	%rdi, %rcx
	.p2align	4, 0x90
.LBB34_8:                               # %"$13"
                                        # =>This Inner Loop Header: Depth=1
	movq	(%rcx), %rdx
	movl	%edx, %esi
	andl	$14, %esi
	cmpl	$8, %esi
	jne	.LBB34_44
# %bb.9:                                # %"$15"
                                        #   in Loop: Header=BB34_8 Depth=1
	movq	(%rdx), %rsi
	testb	$15, %sil
	jne	.LBB34_45
# %bb.10:                               # %"$17"
                                        #   in Loop: Header=BB34_8 Depth=1
	cmpq	%rax, (%rsi)
	jne	.LBB34_45
# %bb.11:                               # %"$19"
                                        #   in Loop: Header=BB34_8 Depth=1
	movq	8(%rcx), %rcx
	testb	$15, %cl
	je	.LBB34_8
# %bb.12:                               # %"$21"
	testb	$15, %bl
	movq	gcData(%rip), %rsi
	je	.LBB34_14
# %bb.13:                               # %"$22"
	movq	%rdi, gcData(%rip)
	jmp	.LBB34_43
.LBB34_14:                              # %"$23"
	movq	env(%rip), %rcx
	movl	$16, %eax
	callq	___chkstk_ms
	subq	%rax, %rsp
	movq	%rsp, %r14
	movq	%rsi, (%r14)
	movq	%r14, %rax
	orq	$8, %rax
	movq	%rcx, (%rax)
	movq	%r14, env(%rip)
	movq	%rdi, gcData(%rip)
	movq	(%rbx), %rcx
	movq	8(%rbx), %rdi
	jmp	.LBB34_15
	.p2align	4, 0x90
.LBB34_21:                              # %"$34"
                                        #   in Loop: Header=BB34_15 Depth=1
	movq	(%rdi), %rcx
	movq	8(%rdi), %rdi
.LBB34_15:                              # %"$23"
                                        # =>This Inner Loop Header: Depth=1
	testb	$15, %dil
	jne	.LBB34_16
# %bb.19:                               # %"$26"
                                        #   in Loop: Header=BB34_15 Depth=1
	testb	$15, %cl
	jne	.LBB34_21
# %bb.20:                               # %"$35"
                                        #   in Loop: Header=BB34_15 Depth=1
	subq	$32, %rsp
	callq	evList
	addq	$32, %rsp
	jmp	.LBB34_21
.LBB34_16:                              # %"$28"
	testb	$6, %cl
	jne	.LBB34_23
# %bb.17:                               # %"$30"
	testb	$8, %cl
	jne	.LBB34_18
# %bb.22:                               # %"$32"
	subq	$32, %rsp
	callq	evList
	addq	$32, %rsp
	movq	%rax, %rcx
	jmp	.LBB34_23
.LBB34_18:                              # %"$33"
	movq	(%rcx), %rcx
.LBB34_23:                              # %"$27"
	movq	%rsi, gcData(%rip)
	movq	8(%r14), %rax
	movq	%rax, env(%rip)
	movq	%rcx, %rsi
.LBB34_43:                              # %"$4"
	movq	%rsi, %rax
	leaq	8(%rbp), %rsp
	popq	%rbx
	popq	%rdi
	popq	%rsi
	popq	%r12
	popq	%r13
	popq	%r14
	popq	%r15
	popq	%rbp
	retq
.LBB34_45:                              # %"$18"
	subq	$32, %rsp
	movq	%r12, %rcx
	callq	symNspErr
.LBB34_50:                              # %"$63"
	subq	$32, %rsp
	movq	%r12, %rcx
	movq	%rax, %rdx
	callq	symNspErr
.LBB34_44:                              # %"$14"
	subq	$32, %rsp
	movq	%r12, %rcx
	callq	symErr
.LBB34_49:                              # %"$59"
	subq	$32, %rsp
	movq	%r12, %rcx
	movq	%rax, %rdx
	callq	symErr
.LBB34_46:                              # %"$37"
	subq	$32, %rsp
	movq	%r12, %rcx
	movq	%rdi, %rdx
	callq	symErr
.LBB34_47:                              # %"$45"
	subq	$32, %rsp
	movq	%r12, %rcx
	movq	%rdi, %rdx
	callq	protErr
	int3
	.seh_handlerdata
	.text
	.seh_endproc
                                        # -- End function
	.def	 _intern;
	.scl	2;
	.type	32;
	.endef
	.globl	_intern                         # -- Begin function _intern
	.p2align	4, 0x90
_intern:                                # @_intern
.seh_proc _intern
# %bb.0:                                # %"$1"
	pushq	%rbp
	.seh_pushreg %rbp
	pushq	%r14
	.seh_pushreg %r14
	pushq	%rsi
	.seh_pushreg %rsi
	pushq	%rdi
	.seh_pushreg %rdi
	pushq	%rbx
	.seh_pushreg %rbx
	movq	%rsp, %rbp
	.seh_setframe %rbp, 0
	.seh_endprologue
	movq	%rcx, %rdi
	movq	8(%rcx), %rax
	movq	(%rax), %rsi
	movq	8(%rax), %r14
	testb	$6, %sil
	jne	.LBB35_4
# %bb.1:                                # %"$3"
	testb	$8, %sil
	jne	.LBB35_2
# %bb.3:                                # %"$5"
	subq	$32, %rsp
	movq	%rsi, %rcx
	callq	evList
	addq	$32, %rsp
	movq	%rax, %rsi
	jmp	.LBB35_4
.LBB35_2:                               # %"$6"
	movq	(%rsi), %rsi
.LBB35_4:                               # %"$2"
	movl	%esi, %eax
	andl	$14, %eax
	cmpl	$8, %eax
	jne	.LBB35_20
# %bb.5:                                # %"$8"
	movq	env(%rip), %rcx
	movl	$16, %eax
	callq	___chkstk_ms
	subq	%rax, %rsp
	movq	%rsp, %rbx
	movq	%rsi, (%rbx)
	movq	%rbx, %rax
	orq	$8, %rax
	movq	%rcx, (%rax)
	movq	%rbx, env(%rip)
	movq	-8(%rsi), %rdi
	leaq	SymTab+8(%rip), %rax
	testb	$8, %dil
	jne	.LBB35_19
	.p2align	4, 0x90
# %bb.7:                                # %"$13"
	testb	$6, %dil
	jne	.LBB35_8
.LBB35_6:                               # %"$13"
                                        # =>This Inner Loop Header: Depth=1
	movq	8(%rdi), %rdi
	testb	$6, %dil
	je	.LBB35_6
.LBB35_8:                               # %"$14"
	cmpq	$2, %rdi
	je	.LBB35_19
# %bb.9:                                # %"$15"
	movq	(%r14), %rax
	testb	$6, %al
	jne	.LBB35_13
# %bb.10:                               # %"$18"
	testb	$8, %al
	jne	.LBB35_11
# %bb.12:                               # %"$20"
	subq	$32, %rsp
	movq	%rax, %rcx
	callq	evList
	addq	$32, %rsp
	jmp	.LBB35_13
.LBB35_11:                              # %"$21"
	movq	(%rax), %rax
.LBB35_13:                              # %"$17"
	leaq	SymTab+8(%rip), %rcx
	cmpq	%rcx, %rax
	jne	.LBB35_15
# %bb.14:                               # %"$22"
	movq	gcData(%rip), %rax
	movq	(%rax), %rcx
	movq	8(%rax), %rax
	movq	(%rcx), %rcx
	movq	8(%rcx), %r9
	subq	$48, %rsp
	movq	%rax, 32(%rsp)
	jmp	.LBB35_18
.LBB35_15:                              # %"$23"
	leaq	SymTab+280(%rip), %rdx
	cmpq	%rdx, %rax
	jne	.LBB35_17
# %bb.16:                               # %"$25"
	movq	gcData(%rip), %rax
	movq	(%rax), %rax
.LBB35_17:                              # %"$27"
	movq	(%rax), %rax
	movq	8(%rax), %r9
	subq	$48, %rsp
	movq	%rcx, 32(%rsp)
.LBB35_18:                              # %"$9"
	movb	$0, 40(%rsp)
	movq	%rsi, %rcx
	xorl	%edx, %edx
	movq	%rdi, %r8
	callq	intern
	addq	$48, %rsp
.LBB35_19:                              # %"$9"
	movq	8(%rbx), %rcx
	movq	%rcx, env(%rip)
	movq	%rbp, %rsp
	popq	%rbx
	popq	%rdi
	popq	%rsi
	popq	%r14
	popq	%rbp
	retq
.LBB35_20:                              # %"$7"
	subq	$32, %rsp
	movq	%rdi, %rcx
	movq	%rsi, %rdx
	callq	symErr
	int3
	.seh_handlerdata
	.text
	.seh_endproc
                                        # -- End function
	.def	 _hide;
	.scl	2;
	.type	32;
	.endef
	.globl	_hide                           # -- Begin function _hide
	.p2align	4, 0x90
_hide:                                  # @_hide
# %bb.0:                                # %"$1"
	leaq	SymTab+8(%rip), %rax
	movq	%rax, gcData+16(%rip)
	movq	%rax, gcData+8(%rip)
	retq
                                        # -- End function
	.def	 _boxQ;
	.scl	2;
	.type	32;
	.endef
	.globl	_boxQ                           # -- Begin function _boxQ
	.p2align	4, 0x90
_boxQ:                                  # @_boxQ
.seh_proc _boxQ
# %bb.0:                                # %"$1"
	subq	$40, %rsp
	.seh_stackalloc 40
	.seh_endprologue
	movq	8(%rcx), %rax
	movq	(%rax), %rax
	testb	$6, %al
	jne	.LBB37_4
# %bb.1:                                # %"$3"
	testb	$8, %al
	jne	.LBB37_2
# %bb.3:                                # %"$5"
	movq	%rax, %rcx
	callq	evList
	jmp	.LBB37_4
.LBB37_2:                               # %"$6"
	movq	(%rax), %rax
.LBB37_4:                               # %"$2"
	movl	%eax, %edx
	andl	$14, %edx
	leaq	SymTab+8(%rip), %rcx
	cmpl	$8, %edx
	jne	.LBB37_9
# %bb.5:                                # %"$8"
	movq	-8(%rax), %rdx
	testb	$8, %dl
	jne	.LBB37_9
	.p2align	4, 0x90
# %bb.7:                                # %"$11"
	testb	$6, %dl
	jne	.LBB37_8
.LBB37_6:                               # %"$11"
                                        # =>This Inner Loop Header: Depth=1
	movq	8(%rdx), %rdx
	testb	$6, %dl
	je	.LBB37_6
.LBB37_8:                               # %"$12"
	cmpq	$2, %rdx
	leaq	SymTab+8(%rip), %rcx
	cmoveq	%rax, %rcx
.LBB37_9:                               # %"$7"
	movq	%rcx, %rax
	addq	$40, %rsp
	retq
	.seh_handlerdata
	.text
	.seh_endproc
                                        # -- End function
	.def	 _strQ;
	.scl	2;
	.type	32;
	.endef
	.globl	_strQ                           # -- Begin function _strQ
	.p2align	4, 0x90
_strQ:                                  # @_strQ
.seh_proc _strQ
# %bb.0:                                # %"$1"
	pushq	%r14
	.seh_pushreg %r14
	pushq	%rsi
	.seh_pushreg %rsi
	pushq	%rdi
	.seh_pushreg %rdi
	pushq	%rbx
	.seh_pushreg %rbx
	subq	$40, %rsp
	.seh_stackalloc 40
	.seh_endprologue
	movq	8(%rcx), %rax
	movq	(%rax), %rsi
	testb	$6, %sil
	jne	.LBB38_4
# %bb.1:                                # %"$3"
	testb	$8, %sil
	jne	.LBB38_2
# %bb.3:                                # %"$5"
	movq	%rsi, %rcx
	callq	evList
	movq	%rax, %rsi
	jmp	.LBB38_4
.LBB38_2:                               # %"$6"
	movq	(%rsi), %rsi
.LBB38_4:                               # %"$2"
	movl	%esi, %eax
	andl	$14, %eax
	leaq	SymTab+8(%rip), %r14
	cmpl	$8, %eax
	jne	.LBB38_13
# %bb.5:                                # %"$8"
	movq	-8(%rsi), %rbx
	testb	$8, %bl
	jne	.LBB38_13
	.p2align	4, 0x90
# %bb.7:                                # %"$13"
	testb	$6, %bl
	jne	.LBB38_8
.LBB38_6:                               # %"$13"
                                        # =>This Inner Loop Header: Depth=1
	movq	8(%rbx), %rbx
	testb	$6, %bl
	je	.LBB38_6
.LBB38_8:                               # %"$14"
	movq	gcData(%rip), %rdi
	testb	$15, %dil
	jne	.LBB38_12
	.p2align	4, 0x90
.LBB38_10:                              # %"$3.i"
                                        # =>This Inner Loop Header: Depth=1
	movq	(%rdi), %rax
	movq	(%rax), %rax
	movq	8(%rax), %rdx
	movq	%rbx, %rcx
	callq	isIntern
	cmpq	%rsi, %rax
	je	.LBB38_13
# %bb.11:                               # %"$6.i"
                                        #   in Loop: Header=BB38_10 Depth=1
	movq	8(%rdi), %rdi
	testb	$15, %dil
	je	.LBB38_10
.LBB38_12:
	movq	%rsi, %r14
.LBB38_13:                              # %"$7"
	movq	%r14, %rax
	addq	$40, %rsp
	popq	%rbx
	popq	%rdi
	popq	%rsi
	popq	%r14
	retq
	.seh_handlerdata
	.text
	.seh_endproc
                                        # -- End function
	.def	 _zap;
	.scl	2;
	.type	32;
	.endef
	.globl	_zap                            # -- Begin function _zap
	.p2align	4, 0x90
_zap:                                   # @_zap
.seh_proc _zap
# %bb.0:                                # %"$1"
	pushq	%rsi
	.seh_pushreg %rsi
	pushq	%rdi
	.seh_pushreg %rdi
	subq	$40, %rsp
	.seh_stackalloc 40
	.seh_endprologue
	movq	%rcx, %rdi
	movq	8(%rcx), %rax
	movq	(%rax), %rsi
	testb	$6, %sil
	jne	.LBB39_4
# %bb.1:                                # %"$3"
	testb	$8, %sil
	jne	.LBB39_2
# %bb.3:                                # %"$5"
	movq	%rsi, %rcx
	callq	evList
	movq	%rax, %rsi
	jmp	.LBB39_4
.LBB39_2:                               # %"$6"
	movq	(%rsi), %rsi
.LBB39_4:                               # %"$2"
	movl	%esi, %eax
	andl	$14, %eax
	cmpl	$8, %eax
	jne	.LBB39_15
# %bb.5:                                # %"$8"
	movq	-8(%rsi), %rdx
	testb	$8, %dl
	jne	.LBB39_6
	.p2align	4, 0x90
# %bb.12:                               # %"$13"
	testb	$6, %dl
	jne	.LBB39_13
.LBB39_11:                              # %"$13"
                                        # =>This Inner Loop Header: Depth=1
	movq	8(%rdx), %rdx
	testb	$6, %dl
	je	.LBB39_11
.LBB39_13:                              # %"$14"
	movq	gcData(%rip), %rax
	movq	(%rax), %rax
	movq	(%rax), %rax
	movq	8(%rax), %r8
	movq	%rsi, %rcx
	callq	unintern
	jmp	.LBB39_14
.LBB39_6:                               # %"$9"
	testb	$6, %dl
	jne	.LBB39_10
# %bb.7:                                # %"$2.i"
	andq	$-9, %rdx
	.p2align	4, 0x90
.LBB39_8:                               # %"$4.i"
                                        # =>This Inner Loop Header: Depth=1
	movq	8(%rdx), %rdx
	testb	$6, %dl
	je	.LBB39_8
# %bb.9:                                # %"$6.i"
	orq	$8, %rdx
.LBB39_10:                              # %dbZap.exit
	shlq	$2, %rdx
	movl	$3, %eax
	shldq	$62, %rdx, %rax
	movq	%rax, -8(%rsi)
	leaq	SymTab+8(%rip), %rax
	movq	%rax, (%rsi)
.LBB39_14:                              # %"$11"
	movq	%rsi, %rax
	addq	$40, %rsp
	popq	%rdi
	popq	%rsi
	retq
.LBB39_15:                              # %"$7"
	movq	%rdi, %rcx
	movq	%rsi, %rdx
	callq	symErr
	int3
	.seh_handlerdata
	.text
	.seh_endproc
                                        # -- End function
	.def	 _chop;
	.scl	2;
	.type	32;
	.endef
	.globl	_chop                           # -- Begin function _chop
	.p2align	4, 0x90
_chop:                                  # @_chop
.seh_proc _chop
# %bb.0:                                # %"$1"
	pushq	%rbp
	.seh_pushreg %rbp
	pushq	%r15
	.seh_pushreg %r15
	pushq	%r14
	.seh_pushreg %r14
	pushq	%r12
	.seh_pushreg %r12
	pushq	%rsi
	.seh_pushreg %rsi
	pushq	%rdi
	.seh_pushreg %rdi
	pushq	%rbx
	.seh_pushreg %rbx
	movq	%rsp, %rbp
	.seh_setframe %rbp, 0
	.seh_endprologue
	movq	8(%rcx), %rax
	movq	(%rax), %rcx
	testb	$6, %cl
	jne	.LBB40_4
# %bb.1:                                # %"$3"
	testb	$8, %cl
	jne	.LBB40_3
# %bb.2:                                # %"$5"
	subq	$32, %rsp
	callq	evList
	addq	$32, %rsp
	movq	%rax, %rcx
	jmp	.LBB40_4
.LBB40_3:                               # %"$6"
	movq	(%rcx), %rcx
.LBB40_4:                               # %"$2"
	leaq	SymTab+8(%rip), %r12
	cmpq	%r12, %rcx
	je	.LBB40_16
# %bb.5:                                # %"$2"
	movl	%ecx, %eax
	andl	$15, %eax
	testq	%rax, %rax
	je	.LBB40_16
# %bb.6:                                # %"$10"
	subq	$32, %rsp
	callq	xSym
	addq	$32, %rsp
	movq	-8(%rax), %rsi
	testb	$8, %sil
	jne	.LBB40_17
# %bb.7:                                # %"$18.preheader"
	testb	$6, %sil
	movq	%rsi, %rcx
	jne	.LBB40_10
# %bb.8:
	movq	%rsi, %rcx
	.p2align	4, 0x90
.LBB40_9:                               # %"$19"
                                        # =>This Inner Loop Header: Depth=1
	movq	8(%rcx), %rcx
	testb	$6, %cl
	je	.LBB40_9
.LBB40_10:                              # %"$20"
	movl	$16, %eax
	callq	___chkstk_ms
	subq	%rax, %rsp
	movq	%rsp, %r14
	movq	$0, (%r14)
	movq	%rcx, 8(%r14)
	subq	$32, %rsp
	movq	%r14, %rcx
	callq	symChar
	addq	$32, %rsp
	testl	%eax, %eax
	je	.LBB40_36
# %bb.11:                               # %"$21"
	movl	%eax, %edx
	movq	env(%rip), %rcx
	movl	$16, %eax
	callq	___chkstk_ms
	subq	%rax, %rsp
	movq	%rsp, %r15
	movq	%rsi, (%r15)
	movq	%r15, %rax
	orq	$8, %rax
	movq	%rcx, (%rax)
	movq	%r15, env(%rip)
	cmpl	$127, %edx
	jg	.LBB40_20
# %bb.12:                               # %"$4.i"
	movslq	%edx, %rcx
.LBB40_13:                              # %"$2.i"
	shlq	$4, %rcx
	orq	$2, %rcx
	cmpq	$2, %rcx
	jne	.LBB40_21
# %bb.14:
	leaq	SymTab+8(%rip), %rcx
	jmp	.LBB40_22
.LBB40_16:
	movq	%rcx, %r12
	jmp	.LBB40_36
.LBB40_17:                              # %"$12"
	movq	%rsi, %rcx
	andq	$-9, %rcx
	testb	$6, %sil
	jne	.LBB40_19
	.p2align	4, 0x90
.LBB40_18:                              # %"$16"
                                        # =>This Inner Loop Header: Depth=1
	movq	8(%rcx), %rcx
	testb	$6, %cl
	je	.LBB40_18
.LBB40_19:                              # %"$17"
	movq	%rbp, %rsp
	popq	%rbx
	popq	%rdi
	popq	%rsi
	popq	%r12
	popq	%r14
	popq	%r15
	popq	%rbp
	jmp	chopExtNm                       # TAILCALL
.LBB40_20:                              # %"$3.i"
	movl	$4082, %ecx                     # imm = 0xFF2
	cmpl	$1114112, %edx                  # imm = 0x110000
	jne	.LBB40_37
.LBB40_21:                              # %"$3.i.i"
	subq	$32, %rsp
	xorl	%edx, %edx
	callq	consSym
	addq	$32, %rsp
	movq	%rax, %rcx
.LBB40_22:                              # %mkChar.exit
	subq	$32, %rsp
	leaq	SymTab+8(%rip), %rbx
	movq	%rbx, %rdx
	callq	cons
	addq	$32, %rsp
	movq	%rax, %r12
	movq	env(%rip), %rcx
	movl	$16, %eax
	callq	___chkstk_ms
	subq	%rax, %rsp
	movq	%rsp, %rax
	movq	%r12, (%rax)
	movq	%rax, %rdx
	orq	$8, %rdx
	movq	%rcx, (%rdx)
	movq	%rax, env(%rip)
	subq	$32, %rsp
	movq	%r14, %rcx
	callq	symChar
	addq	$32, %rsp
                                        # kill: def $eax killed $eax def $rax
	testl	%eax, %eax
	je	.LBB40_35
# %bb.23:                               # %"$25.preheader"
	movq	%r12, %rdi
	jmp	.LBB40_26
	.p2align	4, 0x90
.LBB40_24:                              # %"$3.i.i18"
                                        #   in Loop: Header=BB40_26 Depth=1
	subq	$32, %rsp
	xorl	%edx, %edx
	callq	consSym
	addq	$32, %rsp
.LBB40_25:                              # %mkChar.exit19
                                        #   in Loop: Header=BB40_26 Depth=1
	subq	$32, %rsp
	movq	%rax, %rcx
	movq	%rbx, %rdx
	callq	cons
	addq	$32, %rsp
	movq	%rax, %rsi
	movq	%rax, 8(%rdi)
	subq	$32, %rsp
	movq	%r14, %rcx
	callq	symChar
	addq	$32, %rsp
                                        # kill: def $eax killed $eax def $rax
	testl	%eax, %eax
	movq	%rsi, %rdi
	je	.LBB40_35
.LBB40_26:                              # %"$25"
                                        # =>This Inner Loop Header: Depth=1
	cmpl	$127, %eax
	jg	.LBB40_28
# %bb.27:                               # %"$4.i10"
                                        #   in Loop: Header=BB40_26 Depth=1
	movslq	%eax, %rcx
	jmp	.LBB40_34
	.p2align	4, 0x90
.LBB40_28:                              # %"$3.i11"
                                        #   in Loop: Header=BB40_26 Depth=1
	movl	$4082, %ecx                     # imm = 0xFF2
	cmpl	$1114112, %eax                  # imm = 0x110000
	je	.LBB40_24
# %bb.29:                               # %"$5.i12"
                                        #   in Loop: Header=BB40_26 Depth=1
	movl	%eax, %ecx
	cmpl	$2047, %eax                     # imm = 0x7FF
	jg	.LBB40_31
# %bb.30:                               # %"$8.i13"
                                        #   in Loop: Header=BB40_26 Depth=1
	shrl	$6, %ecx
	andl	$63, %eax
	shll	$8, %eax
	orl	%ecx, %eax
	orl	$32960, %eax                    # imm = 0x80C0
	movq	%rax, %rcx
	jmp	.LBB40_34
.LBB40_31:                              # %"$7.i14"
                                        #   in Loop: Header=BB40_26 Depth=1
	cmpl	$65535, %eax                    # imm = 0xFFFF
	jg	.LBB40_33
# %bb.32:                               # %"$10.i15"
                                        #   in Loop: Header=BB40_26 Depth=1
	shrl	$12, %ecx
	leal	(,%rax,4), %edx
	andl	$16128, %edx                    # imm = 0x3F00
	andl	$63, %eax
	shll	$16, %eax
	orl	%edx, %eax
	orl	%ecx, %eax
	orl	$8421600, %eax                  # imm = 0x8080E0
	movq	%rax, %rcx
	jmp	.LBB40_34
.LBB40_33:                              # %"$9.i16"
                                        #   in Loop: Header=BB40_26 Depth=1
	shrl	$18, %ecx
	andl	$7, %ecx
	movl	%eax, %edx
	shrl	$4, %edx
	andl	$16128, %edx                    # imm = 0x3F00
	orl	%ecx, %edx
	movl	%eax, %ecx
	shll	$10, %ecx
	andl	$4128768, %ecx                  # imm = 0x3F0000
	orl	%edx, %ecx
	andl	$63, %eax
	shll	$24, %eax
	leal	-2139062032(%rax,%rcx), %ecx
	.p2align	4, 0x90
.LBB40_34:                              # %"$2.i17"
                                        #   in Loop: Header=BB40_26 Depth=1
	shlq	$4, %rcx
	orq	$2, %rcx
	cmpq	$2, %rcx
	movq	%rbx, %rax
	jne	.LBB40_24
	jmp	.LBB40_25
.LBB40_35:                              # %"$26"
	movq	8(%r15), %rax
	movq	%rax, env(%rip)
.LBB40_36:                              # %"$11"
	movq	%r12, %rax
	movq	%rbp, %rsp
	popq	%rbx
	popq	%rdi
	popq	%rsi
	popq	%r12
	popq	%r14
	popq	%r15
	popq	%rbp
	retq
.LBB40_37:                              # %"$5.i"
	movl	%edx, %eax
	cmpl	$2047, %edx                     # imm = 0x7FF
	jg	.LBB40_39
# %bb.38:                               # %"$8.i"
	shrl	$6, %eax
	andl	$63, %edx
	shll	$8, %edx
	orl	%eax, %edx
	orl	$32960, %edx                    # imm = 0x80C0
	movq	%rdx, %rcx
	jmp	.LBB40_13
.LBB40_39:                              # %"$7.i"
	cmpl	$65535, %edx                    # imm = 0xFFFF
	jg	.LBB40_41
# %bb.40:                               # %"$10.i"
	shrl	$12, %eax
	leal	(,%rdx,4), %ecx
	andl	$16128, %ecx                    # imm = 0x3F00
	andl	$63, %edx
	shll	$16, %edx
	orl	%ecx, %edx
	orl	%eax, %edx
	orl	$8421600, %edx                  # imm = 0x8080E0
	movq	%rdx, %rcx
	jmp	.LBB40_13
.LBB40_41:                              # %"$9.i"
	shrl	$18, %eax
	andl	$7, %eax
	movl	%edx, %ecx
	shrl	$4, %ecx
	andl	$16128, %ecx                    # imm = 0x3F00
	orl	%eax, %ecx
	movl	%edx, %eax
	shll	$10, %eax
	andl	$4128768, %eax                  # imm = 0x3F0000
	orl	%ecx, %eax
	andl	$63, %edx
	shll	$24, %edx
	leal	-2139062032(%rdx,%rax), %ecx
	jmp	.LBB40_13
	.seh_handlerdata
	.text
	.seh_endproc
                                        # -- End function
	.def	 _pack;
	.scl	2;
	.type	32;
	.endef
	.globl	_pack                           # -- Begin function _pack
	.p2align	4, 0x90
_pack:                                  # @_pack
.seh_proc _pack
# %bb.0:                                # %"$1"
	pushq	%rsi
	.seh_pushreg %rsi
	pushq	%rdi
	.seh_pushreg %rdi
	pushq	%rbx
	.seh_pushreg %rbx
	subq	$80, %rsp
	.seh_stackalloc 80
	.seh_endprologue
	movq	env(%rip), %rax
	movq	$10, 32(%rsp)
	movq	%rax, 40(%rsp)
	leaq	32(%rsp), %rax
	movq	%rax, env(%rip)
	movq	8(%rcx), %rbx
	movq	$4, 48(%rsp)
	leaq	64(%rsp), %rcx
	movq	$2, 64(%rsp)
	movq	%rax, 72(%rsp)
	movq	%rcx, env(%rip)
	leaq	SymTab+8(%rip), %rsi
	testb	$15, %bl
	jne	.LBB41_9
# %bb.1:                                # %"$3.preheader"
	leaq	48(%rsp), %rdi
	jmp	.LBB41_2
.LBB41_5:                               # %"$8"
                                        #   in Loop: Header=BB41_2 Depth=1
	callq	evList
	movq	%rax, %rcx
	.p2align	4, 0x90
.LBB41_6:                               # %"$5"
                                        #   in Loop: Header=BB41_2 Depth=1
	movq	%rcx, 32(%rsp)
	movq	%rdi, %rdx
	callq	pack
	testb	$15, %bl
	jne	.LBB41_7
.LBB41_2:                               # %"$3"
                                        # =>This Inner Loop Header: Depth=1
	movq	(%rbx), %rcx
	movq	8(%rbx), %rbx
	testb	$6, %cl
	jne	.LBB41_6
# %bb.3:                                # %"$6"
                                        #   in Loop: Header=BB41_2 Depth=1
	testb	$8, %cl
	je	.LBB41_5
# %bb.4:                                # %"$9"
                                        #   in Loop: Header=BB41_2 Depth=1
	movq	(%rcx), %rcx
	jmp	.LBB41_6
.LBB41_7:                               # %"$4"
	movq	64(%rsp), %rcx
	cmpq	$2, %rcx
	je	.LBB41_9
# %bb.8:                                # %"$3.i"
	xorl	%edx, %edx
	callq	consSym
	movq	%rax, %rsi
.LBB41_9:                               # %consStr.exit
	movq	40(%rsp), %rax
	movq	%rax, env(%rip)
	movq	%rsi, %rax
	addq	$80, %rsp
	popq	%rbx
	popq	%rdi
	popq	%rsi
	retq
	.seh_handlerdata
	.text
	.seh_endproc
                                        # -- End function
	.def	 _glue;
	.scl	2;
	.type	32;
	.endef
	.globl	_glue                           # -- Begin function _glue
	.p2align	4, 0x90
_glue:                                  # @_glue
.seh_proc _glue
# %bb.0:                                # %"$1"
	pushq	%rbp
	.seh_pushreg %rbp
	pushq	%r15
	.seh_pushreg %r15
	pushq	%r14
	.seh_pushreg %r14
	pushq	%rsi
	.seh_pushreg %rsi
	pushq	%rdi
	.seh_pushreg %rdi
	pushq	%rbx
	.seh_pushreg %rbx
	pushq	%rax
	.seh_stackalloc 8
	movq	%rsp, %rbp
	.seh_setframe %rbp, 0
	.seh_endprologue
	movq	8(%rcx), %rax
	movq	(%rax), %rsi
	movq	8(%rax), %rdi
	testb	$6, %sil
	jne	.LBB42_4
# %bb.1:                                # %"$3"
	testb	$8, %sil
	jne	.LBB42_2
# %bb.3:                                # %"$5"
	subq	$32, %rsp
	movq	%rsi, %rcx
	callq	evList
	addq	$32, %rsp
	movq	%rax, %rsi
	jmp	.LBB42_4
.LBB42_2:                               # %"$6"
	movq	(%rsi), %rsi
.LBB42_4:                               # %"$2"
	movq	env(%rip), %rcx
	movl	$16, %eax
	callq	___chkstk_ms
	subq	%rax, %rsp
	movq	%rsp, %r15
	movq	%rsi, (%r15)
	movq	%r15, %rax
	orq	$8, %rax
	movq	%rcx, (%rax)
	movq	%r15, env(%rip)
	movq	(%rdi), %rdx
	testb	$6, %dl
	jne	.LBB42_8
# %bb.5:                                # %"$8"
	testb	$8, %dl
	jne	.LBB42_6
# %bb.7:                                # %"$10"
	subq	$32, %rsp
	movq	%rdx, %rcx
	callq	evList
	addq	$32, %rsp
	movq	%rax, %rdx
.LBB42_8:                               # %"$7"
	testb	$15, %dl
	jne	.LBB42_15
.LBB42_9:                               # %"$13"
	movq	env(%rip), %rcx
	movl	$16, %eax
	callq	___chkstk_ms
	subq	%rax, %rsp
	movq	%rsp, %rbx
	movq	%rdx, (%rbx)
	movq	%rbx, %rax
	orq	$8, %rax
	movq	%rcx, (%rax)
	movl	$32, %eax
	callq	___chkstk_ms
	subq	%rax, %rsp
	movq	%rsp, %rdi
	movq	$4, (%rdi)
	leaq	16(%rdi), %r14
	movq	$2, 16(%rdi)
	movq	%rbx, 24(%rdi)
	movq	%r14, env(%rip)
	movq	(%rdx), %rcx
	movq	8(%rdx), %rbx
	.p2align	4, 0x90
.LBB42_11:                              # %"$16"
                                        # =>This Inner Loop Header: Depth=1
	subq	$32, %rsp
	movq	%rdi, %rdx
	callq	pack
	addq	$32, %rsp
	testb	$15, %bl
	jne	.LBB42_12
# %bb.10:                               # %"$16"
                                        #   in Loop: Header=BB42_11 Depth=1
	subq	$32, %rsp
	movq	%rsi, %rcx
	movq	%rdi, %rdx
	callq	pack
	addq	$32, %rsp
	movq	(%rbx), %rcx
	movq	8(%rbx), %rbx
	jmp	.LBB42_11
.LBB42_12:                              # %"$17"
	movq	(%r14), %rcx
	cmpq	$2, %rcx
	jne	.LBB42_14
# %bb.13:
	leaq	SymTab+8(%rip), %rdx
	jmp	.LBB42_15
.LBB42_6:                               # %"$11"
	movq	(%rdx), %rdx
	testb	$15, %dl
	jne	.LBB42_15
	jmp	.LBB42_9
.LBB42_14:                              # %"$3.i"
	subq	$32, %rsp
	xorl	%edx, %edx
	callq	consSym
	addq	$32, %rsp
	movq	%rax, %rdx
.LBB42_15:                              # %"$14"
	movq	8(%r15), %rax
	movq	%rax, env(%rip)
	movq	%rdx, %rax
	leaq	8(%rbp), %rsp
	popq	%rbx
	popq	%rdi
	popq	%rsi
	popq	%r14
	popq	%r15
	popq	%rbp
	retq
	.seh_handlerdata
	.text
	.seh_endproc
                                        # -- End function
	.def	 _text;
	.scl	2;
	.type	32;
	.endef
	.globl	_text                           # -- Begin function _text
	.p2align	4, 0x90
_text:                                  # @_text
.seh_proc _text
# %bb.0:                                # %"$1"
	pushq	%rbp
	.seh_pushreg %rbp
	pushq	%r15
	.seh_pushreg %r15
	pushq	%r14
	.seh_pushreg %r14
	pushq	%r13
	.seh_pushreg %r13
	pushq	%r12
	.seh_pushreg %r12
	pushq	%rsi
	.seh_pushreg %rsi
	pushq	%rdi
	.seh_pushreg %rdi
	pushq	%rbx
	.seh_pushreg %rbx
	subq	$24, %rsp
	.seh_stackalloc 24
	leaq	16(%rsp), %rbp
	.seh_setframe %rbp, 16
	.seh_endprologue
	movq	%rcx, %rsi
	movq	8(%rcx), %rbx
	movq	(%rbx), %rcx
	testb	$6, %cl
	jne	.LBB43_4
# %bb.1:                                # %"$3.i"
	testb	$8, %cl
	jne	.LBB43_2
# %bb.3:                                # %"$5.i"
	subq	$32, %rsp
	callq	evList
	addq	$32, %rsp
	movq	%rax, %rcx
	jmp	.LBB43_4
.LBB43_2:                               # %"$6.i"
	movq	(%rcx), %rcx
.LBB43_4:                               # %evSym.exit
	subq	$32, %rsp
	callq	xSym
	addq	$32, %rsp
	movq	%rax, %rdx
	leaq	SymTab+8(%rip), %rax
	cmpq	%rax, %rdx
	je	.LBB43_57
# %bb.5:                                # %"$3.i13"
	movq	-8(%rdx), %rcx
	testb	$8, %cl
	jne	.LBB43_6
	.p2align	4, 0x90
# %bb.8:                                # %"$8.i"
	testb	$6, %cl
	jne	.LBB43_9
.LBB43_7:                               # %"$8.i"
                                        # =>This Inner Loop Header: Depth=1
	movq	8(%rcx), %rcx
	testb	$6, %cl
	je	.LBB43_7
.LBB43_9:                               # %xName.exit
	movl	$32, %eax
	callq	___chkstk_ms
	subq	%rax, %rsp
	movq	%rsp, %r13
	movq	$0, (%r13)
	leaq	8(%r13), %r15
	movq	%rcx, 8(%r13)
	movq	env(%rip), %rax
	movq	%rax, 16(%r13)
	movl	$32, %eax
	callq	___chkstk_ms
	subq	%rax, %rsp
	movq	%rsp, %r12
	movq	$4, (%r12)
	leaq	16(%r12), %rsi
	movq	$2, 16(%r12)
	movq	%r15, 24(%r12)
	movq	%rsi, env(%rip)
	movq	8(%rbx), %rdi
	testb	$15, %dil
	movq	%rsi, -8(%rbp)                  # 8-byte Spill
	je	.LBB43_16
# %bb.10:
	xorl	%ebx, %ebx
.LBB43_11:                              # %"$13.preheader"
	leaq	1(%rbx), %rax
	movq	%rax, (%rbp)                    # 8-byte Spill
	jmp	.LBB43_12
.LBB43_36:                              # %"$5.i33"
                                        #   in Loop: Header=BB43_12 Depth=1
	movl	$64, %eax
	shlq	%cl, %rax
	orq	%rax, %rdi
	movq	%rdi, 16(%r12)
.LBB43_37:                              # %"$13"
                                        #   in Loop: Header=BB43_12 Depth=1
	addq	$8, %rcx
	movq	%rcx, (%r12)
	.p2align	4, 0x90
.LBB43_12:                              # %"$13"
                                        # =>This Loop Header: Depth=1
                                        #     Child Loop BB43_51 Depth 2
	movq	(%r13), %rcx
	testq	%rcx, %rcx
	jne	.LBB43_24
# %bb.13:                               # %"$2.i"
                                        #   in Loop: Header=BB43_12 Depth=1
	movq	(%r15), %rcx
	cmpq	$2, %rcx
	je	.LBB43_53
# %bb.14:                               # %"$5.i18"
                                        #   in Loop: Header=BB43_12 Depth=1
	testb	$2, %cl
	jne	.LBB43_15
# %bb.22:                               # %"$7.i"
                                        #   in Loop: Header=BB43_12 Depth=1
	movq	-4(%rcx), %rdx
	movq	%rdx, (%r13)
	movq	4(%rcx), %rax
	movq	%rdx, %rcx
	jmp	.LBB43_23
.LBB43_15:                              # %"$8.i19"
                                        #   in Loop: Header=BB43_12 Depth=1
	shrq	$4, %rcx
	movl	$2, %eax
.LBB43_23:                              # %symByte.exit.sink.split
                                        #   in Loop: Header=BB43_12 Depth=1
	movq	%rax, (%r15)
.LBB43_24:                              # %symByte.exit
                                        #   in Loop: Header=BB43_12 Depth=1
	movq	%rcx, %rax
	shrq	$8, %rax
	movq	%rax, (%r13)
	cmpb	$64, %cl
	je	.LBB43_27
# %bb.25:                               # %symByte.exit
                                        #   in Loop: Header=BB43_12 Depth=1
	testb	%cl, %cl
	je	.LBB43_53
# %bb.26:                               # %"$18"
                                        #   in Loop: Header=BB43_12 Depth=1
	subq	$32, %rsp
                                        # kill: def $cl killed $cl killed $rcx
	movq	%r12, %rdx
	callq	byteSym
	addq	$32, %rsp
	jmp	.LBB43_12
	.p2align	4, 0x90
.LBB43_27:                              # %"$17"
                                        #   in Loop: Header=BB43_12 Depth=1
	testq	%rax, %rax
	jne	.LBB43_33
# %bb.28:                               # %"$2.i22"
                                        #   in Loop: Header=BB43_12 Depth=1
	movq	(%r15), %rax
	cmpq	$2, %rax
	je	.LBB43_12
# %bb.29:                               # %"$5.i25"
                                        #   in Loop: Header=BB43_12 Depth=1
	testb	$2, %al
	jne	.LBB43_30
# %bb.31:                               # %"$7.i27"
                                        #   in Loop: Header=BB43_12 Depth=1
	movq	-4(%rax), %rdx
	movq	%rdx, (%r13)
	movq	4(%rax), %rcx
	movq	%rdx, %rax
	jmp	.LBB43_32
.LBB43_30:                              # %"$8.i26"
                                        #   in Loop: Header=BB43_12 Depth=1
	shrq	$4, %rax
	movl	$2, %ecx
.LBB43_32:                              # %symByte.exit29.sink.split
                                        #   in Loop: Header=BB43_12 Depth=1
	movq	%rcx, (%r15)
.LBB43_33:                              # %symByte.exit29
                                        #   in Loop: Header=BB43_12 Depth=1
	movq	%rax, %rcx
	shrq	$8, %rcx
	movq	%rcx, (%r13)
	cmpb	$64, %al
	jne	.LBB43_46
# %bb.34:                               # %"$20"
                                        #   in Loop: Header=BB43_12 Depth=1
	movq	(%r12), %rcx
	movq	16(%r12), %rdi
	testb	$2, %dil
	jne	.LBB43_35
# %bb.41:                               # %"$3.i35"
                                        #   in Loop: Header=BB43_12 Depth=1
	movq	8(%r12), %rdi
	movq	4(%rdi), %r14
	cmpq	$59, %rcx
	ja	.LBB43_43
# %bb.42:                               # %"$8.i36"
                                        #   in Loop: Header=BB43_12 Depth=1
	movl	$64, %eax
	shlq	%cl, %rax
	orq	%rax, %r14
	movq	%r14, 4(%rdi)
	jmp	.LBB43_37
.LBB43_46:                              # %"$19"
                                        #   in Loop: Header=BB43_12 Depth=1
	leal	-48(%rax), %ecx
	testb	%cl, %cl
	jle	.LBB43_12
# %bb.47:                               # %"$22"
                                        #   in Loop: Header=BB43_12 Depth=1
	addb	$-55, %al
	cmpb	$9, %cl
	movzbl	%cl, %ecx
	movzbl	%al, %eax
	cmovbel	%ecx, %eax
	movzbl	%al, %eax
	movq	%rbx, %rcx
	subq	%rax, %rcx
	js	.LBB43_12
# %bb.48:                               # %"$27.preheader"
                                        #   in Loop: Header=BB43_12 Depth=1
	testq	%rcx, %rcx
	je	.LBB43_49
# %bb.50:                               # %"$28.preheader"
                                        #   in Loop: Header=BB43_12 Depth=1
	movq	(%rbp), %rcx                    # 8-byte Reload
	subq	%rax, %rcx
	movq	%rsi, %rax
	.p2align	4, 0x90
.LBB43_51:                              # %"$28"
                                        #   Parent Loop BB43_12 Depth=1
                                        # =>  This Inner Loop Header: Depth=2
	movq	8(%rax), %rax
	decq	%rcx
	cmpq	$1, %rcx
	jg	.LBB43_51
	jmp	.LBB43_52
.LBB43_35:                              # %"$2.i32"
                                        #   in Loop: Header=BB43_12 Depth=1
	cmpq	$59, %rcx
	jbe	.LBB43_36
# %bb.38:                               # %"$6.i34"
                                        #   in Loop: Header=BB43_12 Depth=1
	shrq	$4, %rdi
	movabsq	$4611686018427387904, %rax      # imm = 0x4000000000000000
	orq	%rax, %rdi
	movq	($Avail)(%rip), %rax
	testq	%rax, %rax
	jne	.LBB43_40
# %bb.39:                               # %"$2.i.i"
                                        #   in Loop: Header=BB43_12 Depth=1
	subq	$32, %rsp
	callq	gc
	addq	$32, %rsp
	movq	($Avail)(%rip), %rax
.LBB43_40:                              # %boxNum.exit.i
                                        #   in Loop: Header=BB43_12 Depth=1
	movq	(%rax), %rcx
	movq	%rcx, ($Avail)(%rip)
	movq	%rdi, (%rax)
	movq	$2, 8(%rax)
	addq	$4, %rax
	movq	%rax, 8(%r12)
	movq	%rax, 16(%r12)
	movq	$4, (%r12)
	jmp	.LBB43_12
.LBB43_43:                              # %"$9.i"
                                        #   in Loop: Header=BB43_12 Depth=1
	shrq	$4, %r14
	movabsq	$4611686018427387904, %rax      # imm = 0x4000000000000000
	orq	%rax, %r14
	movq	($Avail)(%rip), %rax
	testq	%rax, %rax
	jne	.LBB43_45
# %bb.44:                               # %"$2.i2.i"
                                        #   in Loop: Header=BB43_12 Depth=1
	subq	$32, %rsp
	callq	gc
	addq	$32, %rsp
	movq	($Avail)(%rip), %rax
.LBB43_45:                              # %boxNum.exit3.i
                                        #   in Loop: Header=BB43_12 Depth=1
	movq	(%rax), %rcx
	movq	%rcx, ($Avail)(%rip)
	movq	%r14, (%rax)
	movq	$2, 8(%rax)
	addq	$4, %rax
	movq	%rax, 4(%rdi)
	movq	%rax, 8(%r12)
	movq	$4, (%r12)
	jmp	.LBB43_12
.LBB43_49:                              #   in Loop: Header=BB43_12 Depth=1
	movq	%rsi, %rax
.LBB43_52:                              # %"$29"
                                        #   in Loop: Header=BB43_12 Depth=1
	movq	(%rax), %rcx
	subq	$32, %rsp
	movq	%r12, %rdx
	callq	pack
	addq	$32, %rsp
	jmp	.LBB43_12
.LBB43_53:                              # %"$15"
	movq	-8(%rbp), %rax                  # 8-byte Reload
	movq	(%rax), %rcx
	cmpq	$2, %rcx
	jne	.LBB43_55
# %bb.54:
	leaq	SymTab+8(%rip), %rax
	jmp	.LBB43_56
.LBB43_55:                              # %"$3.i30"
	subq	$32, %rsp
	xorl	%edx, %edx
	callq	consSym
	addq	$32, %rsp
.LBB43_56:                              # %consStr.exit
	movq	16(%r13), %rcx
	movq	%rcx, env(%rip)
.LBB43_57:                              # %"$4"
	leaq	8(%rbp), %rsp
	popq	%rbx
	popq	%rdi
	popq	%rsi
	popq	%r12
	popq	%r13
	popq	%r14
	popq	%r15
	popq	%rbp
	retq
.LBB43_16:                              # %"$6.preheader"
	xorl	%ebx, %ebx
	movq	%rsi, %rdx
	jmp	.LBB43_17
.LBB43_20:                              # %"$11"
                                        #   in Loop: Header=BB43_17 Depth=1
	subq	$32, %rsp
	callq	evList
	addq	$32, %rsp
	movq	%rax, %rcx
	movq	env(%rip), %rdx
	.p2align	4, 0x90
.LBB43_21:                              # %"$8"
                                        #   in Loop: Header=BB43_17 Depth=1
	movl	$16, %eax
	callq	___chkstk_ms
	subq	%rax, %rsp
	movq	%rsp, %rsi
	movq	%rcx, (%rsi)
	movq	%rdx, 8(%rsi)
	movq	%rsi, env(%rip)
	incq	%rbx
	movq	8(%rdi), %rdi
	testb	$15, %dil
	movq	%rsi, %rdx
	jne	.LBB43_11
.LBB43_17:                              # %"$6"
                                        # =>This Inner Loop Header: Depth=1
	movq	(%rdi), %rcx
	testb	$6, %cl
	jne	.LBB43_21
# %bb.18:                               # %"$9"
                                        #   in Loop: Header=BB43_17 Depth=1
	testb	$8, %cl
	je	.LBB43_20
# %bb.19:                               # %"$12"
                                        #   in Loop: Header=BB43_17 Depth=1
	movq	(%rcx), %rcx
	jmp	.LBB43_21
.LBB43_6:                               # %"$6.i14"
	subq	$32, %rsp
	movq	%rsi, %rcx
	callq	nameErr
	int3
	.seh_handlerdata
	.text
	.seh_endproc
                                        # -- End function
	.def	 _preQ;
	.scl	2;
	.type	32;
	.endef
	.globl	_preQ                           # -- Begin function _preQ
	.p2align	4, 0x90
_preQ:                                  # @_preQ
.seh_proc _preQ
# %bb.0:                                # %"$1"
	pushq	%rbp
	.seh_pushreg %rbp
	pushq	%r14
	.seh_pushreg %r14
	pushq	%rsi
	.seh_pushreg %rsi
	pushq	%rdi
	.seh_pushreg %rdi
	pushq	%rbx
	.seh_pushreg %rbx
	movq	%rsp, %rbp
	.seh_setframe %rbp, 0
	.seh_endprologue
	movq	%rcx, %r14
	movq	8(%rcx), %rsi
	movq	(%rsi), %rcx
	testb	$6, %cl
	jne	.LBB44_4
# %bb.1:                                # %"$3.i"
	testb	$8, %cl
	jne	.LBB44_2
# %bb.3:                                # %"$5.i"
	subq	$32, %rsp
	callq	evList
	addq	$32, %rsp
	movq	%rax, %rcx
	jmp	.LBB44_4
.LBB44_2:                               # %"$6.i"
	movq	(%rcx), %rcx
.LBB44_4:                               # %evSym.exit
	subq	$32, %rsp
	callq	xSym
	addq	$32, %rsp
	movq	%rax, %rdi
	movq	env(%rip), %rcx
	movl	$16, %eax
	callq	___chkstk_ms
	subq	%rax, %rsp
	movq	%rsp, %rbx
	movq	%rdi, (%rbx)
	movq	%rbx, %rax
	orq	$8, %rax
	movq	%rcx, (%rax)
	movq	%rbx, env(%rip)
	movq	8(%rsi), %rax
	movq	(%rax), %rcx
	testb	$6, %cl
	jne	.LBB44_8
# %bb.5:                                # %"$3.i6"
	testb	$8, %cl
	jne	.LBB44_6
# %bb.7:                                # %"$5.i8"
	subq	$32, %rsp
	callq	evList
	addq	$32, %rsp
	movq	%rax, %rcx
	jmp	.LBB44_8
.LBB44_6:                               # %"$6.i7"
	movq	(%rcx), %rcx
.LBB44_8:                               # %evSym.exit9
	subq	$32, %rsp
	callq	xSym
	addq	$32, %rsp
	leaq	SymTab+8(%rip), %rcx
	cmpq	%rcx, %rdi
	je	.LBB44_41
# %bb.9:                                # %"$3.i11"
	movq	-8(%rdi), %rdx
	testb	$8, %dl
	jne	.LBB44_10
	.p2align	4, 0x90
# %bb.12:                               # %"$8.i"
	testb	$6, %dl
	jne	.LBB44_13
.LBB44_11:                              # %"$8.i"
                                        # =>This Inner Loop Header: Depth=1
	movq	8(%rdx), %rdx
	testb	$6, %dl
	je	.LBB44_11
.LBB44_13:                              # %xName.exit
	cmpq	$2, %rdx
	je	.LBB44_41
# %bb.14:                               # %"$5"
	cmpq	%rcx, %rax
	je	.LBB44_40
# %bb.15:                               # %"$3.i15"
	movq	-8(%rax), %rdi
	testb	$8, %dil
	jne	.LBB44_16
	.p2align	4, 0x90
# %bb.18:                               # %"$8.i20"
	testb	$6, %dil
	jne	.LBB44_19
.LBB44_17:                              # %"$8.i20"
                                        # =>This Inner Loop Header: Depth=1
	movq	8(%rdi), %rdi
	testb	$6, %dil
	je	.LBB44_17
.LBB44_19:                              # %"$2.i"
	cmpq	$2, %rdi
	je	.LBB44_40
# %bb.20:                               # %"$5.i24"
	testb	$2, %dil
	jne	.LBB44_21
# %bb.22:                               # %"$7.i"
	movq	4(%rdi), %r8
	movq	-4(%rdi), %rdi
	testb	%dil, %dil
	jne	.LBB44_24
	jmp	.LBB44_40
.LBB44_21:                              # %"$8.i25"
	shrq	$4, %rdi
	movl	$2, %r8d
	testb	%dil, %dil
	je	.LBB44_40
.LBB44_24:                              # %"$5.i.i"
	testb	$2, %dl
	jne	.LBB44_25
# %bb.26:                               # %"$7.i.i"
	movq	4(%rdx), %rsi
	movq	-4(%rdx), %rdx
	jmp	.LBB44_27
.LBB44_25:                              # %"$8.i.i"
	shrq	$4, %rdx
	movl	$2, %esi
	jmp	.LBB44_27
.LBB44_38:                              # %"$7.i8.i"
                                        #   in Loop: Header=BB44_27 Depth=1
	movq	-4(%r8), %rdi
	movq	4(%r8), %r8
	.p2align	4, 0x90
.LBB44_39:                              # %symByte.exit10.i
                                        #   in Loop: Header=BB44_27 Depth=1
	testb	%dil, %dil
	je	.LBB44_40
.LBB44_27:                              # %"$2.i28"
                                        # =>This Inner Loop Header: Depth=1
	cmpb	%dl, %dil
	jne	.LBB44_40
# %bb.28:                               # %"$3.i29"
                                        #   in Loop: Header=BB44_27 Depth=1
	shrq	$8, %rdx
	jne	.LBB44_33
# %bb.29:                               # %"$2.i12.i"
                                        #   in Loop: Header=BB44_27 Depth=1
	cmpq	$2, %rsi
	je	.LBB44_41
# %bb.30:                               # %"$5.i15.i"
                                        #   in Loop: Header=BB44_27 Depth=1
	testb	$2, %sil
	jne	.LBB44_31
# %bb.32:                               # %"$7.i17.i"
                                        #   in Loop: Header=BB44_27 Depth=1
	movq	-4(%rsi), %rdx
	movq	4(%rsi), %rsi
	jmp	.LBB44_33
.LBB44_31:                              # %"$8.i16.i"
                                        #   in Loop: Header=BB44_27 Depth=1
	movq	%rsi, %rdx
	shrq	$4, %rdx
	movl	$2, %esi
	.p2align	4, 0x90
.LBB44_33:                              # %symByte.exit19.i
                                        #   in Loop: Header=BB44_27 Depth=1
	testb	%dl, %dl
	je	.LBB44_41
# %bb.34:                               # %"$6.i30"
                                        #   in Loop: Header=BB44_27 Depth=1
	shrq	$8, %rdi
	jne	.LBB44_39
# %bb.35:                               # %"$2.i3.i"
                                        #   in Loop: Header=BB44_27 Depth=1
	cmpq	$2, %r8
	je	.LBB44_40
# %bb.36:                               # %"$5.i6.i"
                                        #   in Loop: Header=BB44_27 Depth=1
	testb	$2, %r8b
	je	.LBB44_38
# %bb.37:                               # %"$8.i7.i"
                                        #   in Loop: Header=BB44_27 Depth=1
	movq	%r8, %rdi
	shrq	$4, %rdi
	movl	$2, %r8d
	jmp	.LBB44_39
.LBB44_40:
	movq	%rcx, %rax
.LBB44_41:                              # %"$2"
	movq	8(%rbx), %rcx
	movq	%rcx, env(%rip)
	movq	%rbp, %rsp
	popq	%rbx
	popq	%rdi
	popq	%rsi
	popq	%r14
	popq	%rbp
	retq
.LBB44_10:                              # %"$6.i12"
	subq	$32, %rsp
	movq	%r14, %rcx
	movq	%rdi, %rdx
	callq	nameErr
.LBB44_16:                              # %"$6.i18"
	subq	$32, %rsp
	movq	%r14, %rcx
	movq	%rax, %rdx
	callq	nameErr
	int3
	.seh_handlerdata
	.text
	.seh_endproc
                                        # -- End function
	.def	 _subQ;
	.scl	2;
	.type	32;
	.endef
	.globl	_subQ                           # -- Begin function _subQ
	.p2align	4, 0x90
_subQ:                                  # @_subQ
.seh_proc _subQ
# %bb.0:                                # %"$1"
	pushq	%rbp
	.seh_pushreg %rbp
	pushq	%rsi
	.seh_pushreg %rsi
	pushq	%rdi
	.seh_pushreg %rdi
	pushq	%rbx
	.seh_pushreg %rbx
	pushq	%rax
	.seh_stackalloc 8
	movq	%rsp, %rbp
	.seh_setframe %rbp, 0
	.seh_endprologue
	movq	8(%rcx), %rdi
	movq	(%rdi), %rcx
	testb	$6, %cl
	jne	.LBB45_4
# %bb.1:                                # %"$3.i"
	testb	$8, %cl
	jne	.LBB45_2
# %bb.3:                                # %"$5.i"
	subq	$32, %rsp
	callq	evList
	addq	$32, %rsp
	movq	%rax, %rcx
	jmp	.LBB45_4
.LBB45_2:                               # %"$6.i"
	movq	(%rcx), %rcx
.LBB45_4:                               # %evSym.exit
	subq	$32, %rsp
	callq	xSym
	addq	$32, %rsp
	movq	%rax, %rsi
	movq	env(%rip), %rcx
	movl	$16, %eax
	callq	___chkstk_ms
	subq	%rax, %rsp
	movq	%rsp, %rbx
	movq	%rsi, (%rbx)
	movq	%rbx, %rax
	orq	$8, %rax
	movq	%rcx, (%rax)
	movq	%rbx, env(%rip)
	movq	8(%rdi), %rax
	movq	(%rax), %rcx
	testb	$6, %cl
	jne	.LBB45_8
# %bb.5:                                # %"$3.i3"
	testb	$8, %cl
	jne	.LBB45_6
# %bb.7:                                # %"$5.i5"
	subq	$32, %rsp
	callq	evList
	addq	$32, %rsp
	movq	%rax, %rcx
	jmp	.LBB45_8
.LBB45_6:                               # %"$6.i4"
	movq	(%rcx), %rcx
.LBB45_8:                               # %evSym.exit6
	subq	$32, %rsp
	callq	xSym
	addq	$32, %rsp
	movq	%rax, %rdi
	subq	$32, %rsp
	movq	%rsi, %rcx
	movq	%rax, %rdx
	callq	subStr
	addq	$32, %rsp
	leaq	SymTab+8(%rip), %rcx
	testb	$1, %al
	cmoveq	%rcx, %rdi
	movq	8(%rbx), %rax
	movq	%rax, env(%rip)
	movq	%rdi, %rax
	leaq	8(%rbp), %rsp
	popq	%rbx
	popq	%rdi
	popq	%rsi
	popq	%rbp
	retq
	.seh_handlerdata
	.text
	.seh_endproc
                                        # -- End function
	.def	 _val;
	.scl	2;
	.type	32;
	.endef
	.globl	_val                            # -- Begin function _val
	.p2align	4, 0x90
_val:                                   # @_val
.seh_proc _val
# %bb.0:                                # %"$1"
	pushq	%rsi
	.seh_pushreg %rsi
	pushq	%rdi
	.seh_pushreg %rdi
	subq	$40, %rsp
	.seh_stackalloc 40
	.seh_endprologue
	movq	%rcx, %rdi
	movq	8(%rcx), %rax
	movq	(%rax), %rsi
	testb	$6, %sil
	jne	.LBB46_4
# %bb.1:                                # %"$3"
	testb	$8, %sil
	jne	.LBB46_2
# %bb.3:                                # %"$5"
	movq	%rsi, %rcx
	callq	evList
	movq	%rax, %rsi
	jmp	.LBB46_4
.LBB46_2:                               # %"$6"
	movq	(%rsi), %rsi
.LBB46_4:                               # %"$2"
	testb	$6, %sil
	jne	.LBB46_12
# %bb.5:                                # %"$8"
	testb	$8, %sil
	jne	.LBB46_6
.LBB46_11:                              # %"$12"
	movq	(%rsi), %rax
	addq	$40, %rsp
	popq	%rdi
	popq	%rsi
	retq
.LBB46_6:                               # %"$10"
	movq	-8(%rsi), %rax
	testb	$8, %al
	je	.LBB46_11
# %bb.7:                                # %"$10"
	movl	%eax, %ecx
	andl	$6, %ecx
	testq	%rcx, %rcx
	je	.LBB46_11
# %bb.8:                                # %"$3.i"
	addq	%rax, %rax
	jb	.LBB46_11
# %bb.9:                                # %"$2.i"
	addq	%rax, %rax
	jb	.LBB46_11
# %bb.10:                               # %"$5.i"
	movl	$1, %r8d
	shldq	$62, %rax, %r8
	movq	%r8, -8(%rsi)
	movq	%rdi, %rcx
	movq	%rsi, %rdx
	callq	db
	jmp	.LBB46_11
.LBB46_12:                              # %"$7"
	movq	%rdi, %rcx
	movq	%rsi, %rdx
	callq	varErr
	int3
	.seh_handlerdata
	.text
	.seh_endproc
                                        # -- End function
	.def	 _set;
	.scl	2;
	.type	32;
	.endef
	.globl	_set                            # -- Begin function _set
	.p2align	4, 0x90
_set:                                   # @_set
.seh_proc _set
# %bb.0:                                # %"$1"
	pushq	%r15
	.seh_pushreg %r15
	pushq	%r14
	.seh_pushreg %r14
	pushq	%r12
	.seh_pushreg %r12
	pushq	%rsi
	.seh_pushreg %rsi
	pushq	%rdi
	.seh_pushreg %rdi
	pushq	%rbx
	.seh_pushreg %rbx
	subq	$56, %rsp
	.seh_stackalloc 56
	.seh_endprologue
	movq	%rcx, %r14
	movq	env(%rip), %rax
	movq	$10, 32(%rsp)
	movq	%rax, 40(%rsp)
	leaq	32(%rsp), %rax
	movq	%rax, env(%rip)
	movq	8(%rcx), %rsi
	leaq	SymTab+8(%rip), %rbx
	leaq	SymTab+280(%rip), %r12
	movl	$2, %r15d
	jmp	.LBB47_1
	.p2align	4, 0x90
.LBB47_18:                              # %"$17"
                                        #   in Loop: Header=BB47_1 Depth=1
	movq	(%rsi), %rax
	movq	8(%rsi), %rsi
	testb	$6, %al
	je	.LBB47_19
.LBB47_22:                              # %"$18"
                                        #   in Loop: Header=BB47_1 Depth=1
	movq	%rax, (%rdi)
	testb	$15, %sil
	jne	.LBB47_23
.LBB47_1:                               # %"$2"
                                        # =>This Loop Header: Depth=1
                                        #     Child Loop BB47_13 Depth 2
	movq	(%rsi), %rdi
	movq	8(%rsi), %rsi
	testb	$6, %dil
	jne	.LBB47_5
# %bb.2:                                # %"$4"
                                        #   in Loop: Header=BB47_1 Depth=1
	testb	$8, %dil
	jne	.LBB47_3
# %bb.4:                                # %"$6"
                                        #   in Loop: Header=BB47_1 Depth=1
	movq	%rdi, %rcx
	callq	evList
	movq	%rax, %rdi
	jmp	.LBB47_5
	.p2align	4, 0x90
.LBB47_19:                              # %"$19"
                                        #   in Loop: Header=BB47_1 Depth=1
	testb	$8, %al
	jne	.LBB47_20
# %bb.21:                               # %"$21"
                                        #   in Loop: Header=BB47_1 Depth=1
	movq	%rax, %rcx
	callq	evList
	jmp	.LBB47_22
.LBB47_3:                               # %"$7"
                                        #   in Loop: Header=BB47_1 Depth=1
	movq	(%rdi), %rdi
	.p2align	4, 0x90
.LBB47_5:                               # %"$3"
                                        #   in Loop: Header=BB47_1 Depth=1
	testb	$6, %dil
	jne	.LBB47_24
# %bb.6:                                # %"$9"
                                        #   in Loop: Header=BB47_1 Depth=1
	cmpq	%rbx, %rdi
	jb	.LBB47_8
# %bb.7:                                # %"$9"
                                        #   in Loop: Header=BB47_1 Depth=1
	cmpq	%r12, %rdi
	jbe	.LBB47_25
.LBB47_8:                               # %"$13"
                                        #   in Loop: Header=BB47_1 Depth=1
	movq	%rdi, 32(%rsp)
	testb	$8, %dil
	je	.LBB47_18
# %bb.9:                                # %"$15"
                                        #   in Loop: Header=BB47_1 Depth=1
	movq	-8(%rdi), %rax
	testb	$8, %al
	je	.LBB47_18
# %bb.10:                               # %"$16"
                                        #   in Loop: Header=BB47_1 Depth=1
	testb	$6, %al
	je	.LBB47_12
# %bb.11:                               #   in Loop: Header=BB47_1 Depth=1
	leaq	-8(%rdi), %rcx
	addq	%rax, %rax
	jb	.LBB47_18
	jmp	.LBB47_16
.LBB47_20:                              # %"$22"
                                        #   in Loop: Header=BB47_1 Depth=1
	movq	(%rax), %rax
	jmp	.LBB47_22
.LBB47_12:                              # %"$2.i"
                                        #   in Loop: Header=BB47_1 Depth=1
	andq	$-9, %rax
	.p2align	4, 0x90
.LBB47_13:                              # %"$4.i"
                                        #   Parent Loop BB47_1 Depth=1
                                        # =>  This Inner Loop Header: Depth=2
	movq	%rax, %rcx
	movq	8(%rax), %rax
	testb	$6, %al
	je	.LBB47_13
# %bb.14:                               #   in Loop: Header=BB47_1 Depth=1
	addq	$8, %rcx
	addq	%rax, %rax
	jb	.LBB47_18
.LBB47_16:                              # %"$7.i"
                                        #   in Loop: Header=BB47_1 Depth=1
	leaq	(%rax,%rax), %r8
	shrdq	$2, %r15, %r8
	addq	%rax, %rax
	movq	%r8, (%rcx)
	jb	.LBB47_18
# %bb.17:                               # %"$9.i"
                                        #   in Loop: Header=BB47_1 Depth=1
	movq	%r14, %rcx
	movq	%rdi, %rdx
	callq	db
	jmp	.LBB47_18
.LBB47_23:                              # %"$24"
	movq	40(%rsp), %rcx
	movq	%rcx, env(%rip)
	addq	$56, %rsp
	popq	%rbx
	popq	%rdi
	popq	%rsi
	popq	%r12
	popq	%r14
	popq	%r15
	retq
.LBB47_24:                              # %"$8"
	movq	%r14, %rcx
	movq	%rdi, %rdx
	callq	varErr
.LBB47_25:                              # %"$12"
	movq	%r14, %rcx
	movq	%rdi, %rdx
	callq	protErr
	int3
	.seh_handlerdata
	.text
	.seh_endproc
                                        # -- End function
	.def	 _setq;
	.scl	2;
	.type	32;
	.endef
	.globl	_setq                           # -- Begin function _setq
	.p2align	4, 0x90
_setq:                                  # @_setq
.seh_proc _setq
# %bb.0:                                # %"$1"
	pushq	%r15
	.seh_pushreg %r15
	pushq	%r14
	.seh_pushreg %r14
	pushq	%rsi
	.seh_pushreg %rsi
	pushq	%rdi
	.seh_pushreg %rdi
	pushq	%rbx
	.seh_pushreg %rbx
	subq	$32, %rsp
	.seh_stackalloc 32
	.seh_endprologue
	movq	%rcx, %r14
	movq	8(%rcx), %rsi
	leaq	SymTab+8(%rip), %rbx
	leaq	SymTab+280(%rip), %r15
	jmp	.LBB48_1
.LBB48_7:                               # %"$12"
                                        #   in Loop: Header=BB48_1 Depth=1
	movq	%rax, %rcx
	callq	evList
	.p2align	4, 0x90
.LBB48_8:                               # %"$9"
                                        #   in Loop: Header=BB48_1 Depth=1
	movq	%rax, (%rdi)
	testb	$15, %sil
	jne	.LBB48_9
.LBB48_1:                               # %"$2"
                                        # =>This Inner Loop Header: Depth=1
	movq	(%rsi), %rdi
	testb	$6, %dil
	jne	.LBB48_10
# %bb.2:                                # %"$4"
                                        #   in Loop: Header=BB48_1 Depth=1
	movq	8(%rsi), %rcx
	cmpq	%rbx, %rdi
	jb	.LBB48_4
# %bb.3:                                # %"$4"
                                        #   in Loop: Header=BB48_1 Depth=1
	cmpq	%r15, %rdi
	jbe	.LBB48_11
.LBB48_4:                               # %"$8"
                                        #   in Loop: Header=BB48_1 Depth=1
	movq	(%rcx), %rax
	movq	8(%rcx), %rsi
	testb	$6, %al
	jne	.LBB48_8
# %bb.5:                                # %"$10"
                                        #   in Loop: Header=BB48_1 Depth=1
	testb	$8, %al
	je	.LBB48_7
# %bb.6:                                # %"$13"
                                        #   in Loop: Header=BB48_1 Depth=1
	movq	(%rax), %rax
	jmp	.LBB48_8
.LBB48_9:                               # %"$15"
	addq	$32, %rsp
	popq	%rbx
	popq	%rdi
	popq	%rsi
	popq	%r14
	popq	%r15
	retq
.LBB48_10:                              # %"$3"
	movq	%r14, %rcx
	movq	%rdi, %rdx
	callq	varErr
.LBB48_11:                              # %"$7"
	movq	%r14, %rcx
	movq	%rdi, %rdx
	callq	protErr
	int3
	.seh_handlerdata
	.text
	.seh_endproc
                                        # -- End function
	.def	 _swap;
	.scl	2;
	.type	32;
	.endef
	.globl	_swap                           # -- Begin function _swap
	.p2align	4, 0x90
_swap:                                  # @_swap
.seh_proc _swap
# %bb.0:                                # %"$1"
	pushq	%rbp
	.seh_pushreg %rbp
	pushq	%r14
	.seh_pushreg %r14
	pushq	%rsi
	.seh_pushreg %rsi
	pushq	%rdi
	.seh_pushreg %rdi
	pushq	%rbx
	.seh_pushreg %rbx
	movq	%rsp, %rbp
	.seh_setframe %rbp, 0
	.seh_endprologue
	movq	%rcx, %rdi
	movq	8(%rcx), %rax
	movq	(%rax), %rsi
	movq	8(%rax), %r14
	testb	$6, %sil
	jne	.LBB49_4
# %bb.1:                                # %"$3"
	testb	$8, %sil
	jne	.LBB49_2
# %bb.3:                                # %"$5"
	subq	$32, %rsp
	movq	%rsi, %rcx
	callq	evList
	addq	$32, %rsp
	movq	%rax, %rsi
	jmp	.LBB49_4
.LBB49_2:                               # %"$6"
	movq	(%rsi), %rsi
.LBB49_4:                               # %"$2"
	testb	$6, %sil
	jne	.LBB49_22
# %bb.5:                                # %"$8"
	leaq	SymTab+8(%rip), %rax
	cmpq	%rax, %rsi
	jb	.LBB49_7
# %bb.6:                                # %"$8"
	leaq	SymTab+280(%rip), %rax
	cmpq	%rax, %rsi
	jbe	.LBB49_23
.LBB49_7:                               # %"$12"
	movq	env(%rip), %rcx
	movl	$16, %eax
	callq	___chkstk_ms
	subq	%rax, %rsp
	movq	%rsp, %rbx
	movq	%rsi, (%rbx)
	movq	%rbx, %rax
	orq	$8, %rax
	movq	%rcx, (%rax)
	movq	%rbx, env(%rip)
	testb	$8, %sil
	je	.LBB49_17
# %bb.8:                                # %"$14"
	movq	-8(%rsi), %rax
	testb	$8, %al
	je	.LBB49_17
# %bb.9:                                # %"$15"
	testb	$6, %al
	je	.LBB49_11
# %bb.10:
	leaq	-8(%rsi), %rcx
	addq	%rax, %rax
	jae	.LBB49_15
	jmp	.LBB49_17
.LBB49_11:                              # %"$2.i"
	andq	$-9, %rax
	.p2align	4, 0x90
.LBB49_12:                              # %"$4.i"
                                        # =>This Inner Loop Header: Depth=1
	movq	%rax, %rcx
	movq	8(%rax), %rax
	testb	$6, %al
	je	.LBB49_12
# %bb.13:
	addq	$8, %rcx
	addq	%rax, %rax
	jb	.LBB49_17
.LBB49_15:                              # %"$7.i"
	leaq	(%rax,%rax), %rdx
	movl	$2, %r8d
	shldq	$62, %rdx, %r8
	addq	%rax, %rax
	movq	%r8, (%rcx)
	jb	.LBB49_17
# %bb.16:                               # %"$9.i"
	subq	$32, %rsp
	movq	%rdi, %rcx
	movq	%rsi, %rdx
	callq	db
	addq	$32, %rsp
.LBB49_17:                              # %"$16"
	movq	(%r14), %rax
	testb	$6, %al
	jne	.LBB49_21
# %bb.18:                               # %"$18"
	testb	$8, %al
	jne	.LBB49_19
# %bb.20:                               # %"$20"
	subq	$32, %rsp
	movq	%rax, %rcx
	callq	evList
	addq	$32, %rsp
	jmp	.LBB49_21
.LBB49_19:                              # %"$21"
	movq	(%rax), %rax
.LBB49_21:                              # %"$17"
	movq	(%rsi), %rcx
	movq	%rax, (%rsi)
	movq	8(%rbx), %rax
	movq	%rax, env(%rip)
	movq	%rcx, %rax
	movq	%rbp, %rsp
	popq	%rbx
	popq	%rdi
	popq	%rsi
	popq	%r14
	popq	%rbp
	retq
.LBB49_22:                              # %"$7"
	subq	$32, %rsp
	movq	%rdi, %rcx
	movq	%rsi, %rdx
	callq	varErr
.LBB49_23:                              # %"$11"
	subq	$32, %rsp
	movq	%rdi, %rcx
	movq	%rsi, %rdx
	callq	protErr
	int3
	.seh_handlerdata
	.text
	.seh_endproc
                                        # -- End function
	.def	 _xchg;
	.scl	2;
	.type	32;
	.endef
	.globl	_xchg                           # -- Begin function _xchg
	.p2align	4, 0x90
_xchg:                                  # @_xchg
.seh_proc _xchg
# %bb.0:                                # %"$1"
	pushq	%r15
	.seh_pushreg %r15
	pushq	%r14
	.seh_pushreg %r14
	pushq	%r13
	.seh_pushreg %r13
	pushq	%r12
	.seh_pushreg %r12
	pushq	%rsi
	.seh_pushreg %rsi
	pushq	%rdi
	.seh_pushreg %rdi
	pushq	%rbx
	.seh_pushreg %rbx
	subq	$48, %rsp
	.seh_stackalloc 48
	.seh_endprologue
	movq	%rcx, %r14
	movq	env(%rip), %rax
	movq	$10, 32(%rsp)
	movq	%rax, 40(%rsp)
	leaq	32(%rsp), %rax
	movq	%rax, env(%rip)
	movq	8(%rcx), %rsi
	leaq	SymTab+8(%rip), %r13
	leaq	SymTab+280(%rip), %r15
	movl	$2, %r12d
	jmp	.LBB50_1
	.p2align	4, 0x90
.LBB50_35:                              # %"$32"
                                        #   in Loop: Header=BB50_1 Depth=1
	movq	(%rdi), %rax
	movq	(%rbx), %rcx
	movq	%rcx, (%rdi)
	movq	%rax, (%rbx)
	testb	$15, %sil
	jne	.LBB50_36
.LBB50_1:                               # %"$2"
                                        # =>This Loop Header: Depth=1
                                        #     Child Loop BB50_13 Depth 2
                                        #     Child Loop BB50_30 Depth 2
	movq	(%rsi), %rdi
	movq	8(%rsi), %rsi
	testb	$6, %dil
	jne	.LBB50_5
# %bb.2:                                # %"$4"
                                        #   in Loop: Header=BB50_1 Depth=1
	testb	$8, %dil
	jne	.LBB50_3
# %bb.4:                                # %"$6"
                                        #   in Loop: Header=BB50_1 Depth=1
	movq	%rdi, %rcx
	callq	evList
	movq	%rax, %rdi
	jmp	.LBB50_5
.LBB50_3:                               # %"$7"
                                        #   in Loop: Header=BB50_1 Depth=1
	movq	(%rdi), %rdi
	.p2align	4, 0x90
.LBB50_5:                               # %"$3"
                                        #   in Loop: Header=BB50_1 Depth=1
	testb	$6, %dil
	jne	.LBB50_37
# %bb.6:                                # %"$9"
                                        #   in Loop: Header=BB50_1 Depth=1
	cmpq	%r13, %rdi
	jb	.LBB50_8
# %bb.7:                                # %"$9"
                                        #   in Loop: Header=BB50_1 Depth=1
	cmpq	%r15, %rdi
	jbe	.LBB50_38
.LBB50_8:                               # %"$13"
                                        #   in Loop: Header=BB50_1 Depth=1
	movq	%rdi, 32(%rsp)
	testb	$8, %dil
	je	.LBB50_18
# %bb.9:                                # %"$15"
                                        #   in Loop: Header=BB50_1 Depth=1
	movq	-8(%rdi), %rax
	testb	$8, %al
	je	.LBB50_18
# %bb.10:                               # %"$16"
                                        #   in Loop: Header=BB50_1 Depth=1
	testb	$6, %al
	je	.LBB50_12
# %bb.11:                               #   in Loop: Header=BB50_1 Depth=1
	leaq	-8(%rdi), %rcx
	addq	%rax, %rax
	jae	.LBB50_16
	jmp	.LBB50_18
.LBB50_12:                              # %"$2.i"
                                        #   in Loop: Header=BB50_1 Depth=1
	andq	$-9, %rax
	.p2align	4, 0x90
.LBB50_13:                              # %"$4.i"
                                        #   Parent Loop BB50_1 Depth=1
                                        # =>  This Inner Loop Header: Depth=2
	movq	%rax, %rcx
	movq	8(%rax), %rax
	testb	$6, %al
	je	.LBB50_13
# %bb.14:                               #   in Loop: Header=BB50_1 Depth=1
	addq	$8, %rcx
	addq	%rax, %rax
	jb	.LBB50_18
.LBB50_16:                              # %"$7.i"
                                        #   in Loop: Header=BB50_1 Depth=1
	leaq	(%rax,%rax), %r8
	shrdq	$2, %r12, %r8
	addq	%rax, %rax
	movq	%r8, (%rcx)
	jb	.LBB50_18
# %bb.17:                               # %"$9.i"
                                        #   in Loop: Header=BB50_1 Depth=1
	movq	%r14, %rcx
	movq	%rdi, %rdx
	callq	db
	.p2align	4, 0x90
.LBB50_18:                              # %"$17"
                                        #   in Loop: Header=BB50_1 Depth=1
	movq	(%rsi), %rbx
	movq	8(%rsi), %rsi
	testb	$6, %bl
	jne	.LBB50_22
# %bb.19:                               # %"$19"
                                        #   in Loop: Header=BB50_1 Depth=1
	testb	$8, %bl
	jne	.LBB50_20
# %bb.21:                               # %"$21"
                                        #   in Loop: Header=BB50_1 Depth=1
	movq	%rbx, %rcx
	callq	evList
	movq	%rax, %rbx
	jmp	.LBB50_22
.LBB50_20:                              # %"$22"
                                        #   in Loop: Header=BB50_1 Depth=1
	movq	(%rbx), %rbx
	.p2align	4, 0x90
.LBB50_22:                              # %"$18"
                                        #   in Loop: Header=BB50_1 Depth=1
	testb	$6, %bl
	jne	.LBB50_39
# %bb.23:                               # %"$24"
                                        #   in Loop: Header=BB50_1 Depth=1
	cmpq	%r13, %rbx
	jb	.LBB50_25
# %bb.24:                               # %"$24"
                                        #   in Loop: Header=BB50_1 Depth=1
	cmpq	%r15, %rbx
	jbe	.LBB50_40
.LBB50_25:                              # %"$28"
                                        #   in Loop: Header=BB50_1 Depth=1
	testb	$8, %bl
	je	.LBB50_35
# %bb.26:                               # %"$30"
                                        #   in Loop: Header=BB50_1 Depth=1
	movq	-8(%rbx), %rax
	testb	$8, %al
	je	.LBB50_35
# %bb.27:                               # %"$31"
                                        #   in Loop: Header=BB50_1 Depth=1
	testb	$6, %al
	je	.LBB50_29
# %bb.28:                               #   in Loop: Header=BB50_1 Depth=1
	leaq	-8(%rbx), %rcx
	addq	%rax, %rax
	jb	.LBB50_35
	jmp	.LBB50_33
.LBB50_29:                              # %"$2.i13"
                                        #   in Loop: Header=BB50_1 Depth=1
	andq	$-9, %rax
	.p2align	4, 0x90
.LBB50_30:                              # %"$4.i15"
                                        #   Parent Loop BB50_1 Depth=1
                                        # =>  This Inner Loop Header: Depth=2
	movq	%rax, %rcx
	movq	8(%rax), %rax
	testb	$6, %al
	je	.LBB50_30
# %bb.31:                               #   in Loop: Header=BB50_1 Depth=1
	addq	$8, %rcx
	addq	%rax, %rax
	jb	.LBB50_35
.LBB50_33:                              # %"$7.i17"
                                        #   in Loop: Header=BB50_1 Depth=1
	leaq	(%rax,%rax), %r8
	shrdq	$2, %r12, %r8
	addq	%rax, %rax
	movq	%r8, (%rcx)
	jb	.LBB50_35
# %bb.34:                               # %"$9.i18"
                                        #   in Loop: Header=BB50_1 Depth=1
	movq	%r14, %rcx
	movq	%rbx, %rdx
	callq	db
	jmp	.LBB50_35
.LBB50_36:                              # %"$34"
	movq	40(%rsp), %rcx
	movq	%rcx, env(%rip)
	addq	$48, %rsp
	popq	%rbx
	popq	%rdi
	popq	%rsi
	popq	%r12
	popq	%r13
	popq	%r14
	popq	%r15
	retq
.LBB50_37:                              # %"$8"
	movq	%r14, %rcx
	movq	%rdi, %rdx
	callq	varErr
.LBB50_38:                              # %"$12"
	movq	%r14, %rcx
	movq	%rdi, %rdx
	callq	protErr
.LBB50_39:                              # %"$23"
	movq	%r14, %rcx
	movq	%rbx, %rdx
	callq	varErr
.LBB50_40:                              # %"$27"
	movq	%r14, %rcx
	movq	%rbx, %rdx
	callq	protErr
	int3
	.seh_handlerdata
	.text
	.seh_endproc
                                        # -- End function
	.def	 _on;
	.scl	2;
	.type	32;
	.endef
	.globl	_on                             # -- Begin function _on
	.p2align	4, 0x90
_on:                                    # @_on
.seh_proc _on
# %bb.0:                                # %"$1"
	subq	$40, %rsp
	.seh_stackalloc 40
	.seh_endprologue
	movq	8(%rcx), %rax
	leaq	SymTab+8(%rip), %r8
	leaq	SymTab+280(%rip), %r9
	jmp	.LBB51_1
	.p2align	4, 0x90
.LBB51_4:                               # %"$8"
                                        #   in Loop: Header=BB51_1 Depth=1
	movq	%r9, (%rdx)
	testb	$15, %al
	jne	.LBB51_5
.LBB51_1:                               # %"$2"
                                        # =>This Inner Loop Header: Depth=1
	movq	(%rax), %rdx
	testb	$6, %dl
	jne	.LBB51_6
# %bb.2:                                # %"$4"
                                        #   in Loop: Header=BB51_1 Depth=1
	movq	8(%rax), %rax
	cmpq	%r8, %rdx
	jb	.LBB51_4
# %bb.3:                                # %"$4"
                                        #   in Loop: Header=BB51_1 Depth=1
	cmpq	%r9, %rdx
	ja	.LBB51_4
# %bb.7:                                # %"$7"
	callq	protErr
.LBB51_5:                               # %"$10"
	leaq	SymTab+280(%rip), %rax
	addq	$40, %rsp
	retq
.LBB51_6:                               # %"$3"
	callq	varErr
	int3
	.seh_handlerdata
	.text
	.seh_endproc
                                        # -- End function
	.def	 _off;
	.scl	2;
	.type	32;
	.endef
	.globl	_off                            # -- Begin function _off
	.p2align	4, 0x90
_off:                                   # @_off
.seh_proc _off
# %bb.0:                                # %"$1"
	subq	$40, %rsp
	.seh_stackalloc 40
	.seh_endprologue
	movq	8(%rcx), %rax
	leaq	SymTab+8(%rip), %r8
	leaq	SymTab+280(%rip), %r9
	jmp	.LBB52_1
	.p2align	4, 0x90
.LBB52_4:                               # %"$8"
                                        #   in Loop: Header=BB52_1 Depth=1
	movq	%r8, (%rdx)
	testb	$15, %al
	jne	.LBB52_5
.LBB52_1:                               # %"$2"
                                        # =>This Inner Loop Header: Depth=1
	movq	(%rax), %rdx
	testb	$6, %dl
	jne	.LBB52_6
# %bb.2:                                # %"$4"
                                        #   in Loop: Header=BB52_1 Depth=1
	movq	8(%rax), %rax
	cmpq	%r8, %rdx
	jb	.LBB52_4
# %bb.3:                                # %"$4"
                                        #   in Loop: Header=BB52_1 Depth=1
	cmpq	%r9, %rdx
	ja	.LBB52_4
# %bb.7:                                # %"$7"
	callq	protErr
.LBB52_5:                               # %"$10"
	leaq	SymTab+8(%rip), %rax
	addq	$40, %rsp
	retq
.LBB52_6:                               # %"$3"
	callq	varErr
	int3
	.seh_handlerdata
	.text
	.seh_endproc
                                        # -- End function
	.def	 _onOff;
	.scl	2;
	.type	32;
	.endef
	.globl	_onOff                          # -- Begin function _onOff
	.p2align	4, 0x90
_onOff:                                 # @_onOff
.seh_proc _onOff
# %bb.0:                                # %"$1"
	subq	$40, %rsp
	.seh_stackalloc 40
	.seh_endprologue
	movq	8(%rcx), %r8
	leaq	SymTab+8(%rip), %r9
	leaq	SymTab+280(%rip), %r10
	jmp	.LBB53_1
	.p2align	4, 0x90
.LBB53_4:                               # %"$8"
                                        #   in Loop: Header=BB53_1 Depth=1
	cmpq	%r9, (%rdx)
	movq	%r9, %rax
	cmoveq	%r10, %rax
	movq	%rax, (%rdx)
	testb	$15, %r8b
	jne	.LBB53_5
.LBB53_1:                               # %"$2"
                                        # =>This Inner Loop Header: Depth=1
	movq	(%r8), %rdx
	testb	$6, %dl
	jne	.LBB53_6
# %bb.2:                                # %"$4"
                                        #   in Loop: Header=BB53_1 Depth=1
	movq	8(%r8), %r8
	cmpq	%r9, %rdx
	jb	.LBB53_4
# %bb.3:                                # %"$4"
                                        #   in Loop: Header=BB53_1 Depth=1
	cmpq	%r10, %rdx
	ja	.LBB53_4
# %bb.7:                                # %"$7"
	callq	protErr
.LBB53_5:                               # %"$13"
	nop
	addq	$40, %rsp
	retq
.LBB53_6:                               # %"$3"
	callq	varErr
	int3
	.seh_handlerdata
	.text
	.seh_endproc
                                        # -- End function
	.def	 _zero;
	.scl	2;
	.type	32;
	.endef
	.globl	_zero                           # -- Begin function _zero
	.p2align	4, 0x90
_zero:                                  # @_zero
.seh_proc _zero
# %bb.0:                                # %"$1"
	subq	$40, %rsp
	.seh_stackalloc 40
	.seh_endprologue
	movq	8(%rcx), %rax
	leaq	SymTab+8(%rip), %r8
	leaq	SymTab+280(%rip), %r9
	jmp	.LBB54_1
	.p2align	4, 0x90
.LBB54_4:                               # %"$8"
                                        #   in Loop: Header=BB54_1 Depth=1
	movq	$2, (%rdx)
	testb	$15, %al
	jne	.LBB54_5
.LBB54_1:                               # %"$2"
                                        # =>This Inner Loop Header: Depth=1
	movq	(%rax), %rdx
	testb	$6, %dl
	jne	.LBB54_6
# %bb.2:                                # %"$4"
                                        #   in Loop: Header=BB54_1 Depth=1
	movq	8(%rax), %rax
	cmpq	%r8, %rdx
	jb	.LBB54_4
# %bb.3:                                # %"$4"
                                        #   in Loop: Header=BB54_1 Depth=1
	cmpq	%r9, %rdx
	ja	.LBB54_4
# %bb.7:                                # %"$7"
	callq	protErr
.LBB54_5:                               # %"$10"
	movl	$2, %eax
	addq	$40, %rsp
	retq
.LBB54_6:                               # %"$3"
	callq	varErr
	int3
	.seh_handlerdata
	.text
	.seh_endproc
                                        # -- End function
	.def	 _one;
	.scl	2;
	.type	32;
	.endef
	.globl	_one                            # -- Begin function _one
	.p2align	4, 0x90
_one:                                   # @_one
.seh_proc _one
# %bb.0:                                # %"$1"
	subq	$40, %rsp
	.seh_stackalloc 40
	.seh_endprologue
	movq	8(%rcx), %rax
	leaq	SymTab+8(%rip), %r8
	leaq	SymTab+280(%rip), %r9
	jmp	.LBB55_1
	.p2align	4, 0x90
.LBB55_4:                               # %"$8"
                                        #   in Loop: Header=BB55_1 Depth=1
	movq	$18, (%rdx)
	testb	$15, %al
	jne	.LBB55_5
.LBB55_1:                               # %"$2"
                                        # =>This Inner Loop Header: Depth=1
	movq	(%rax), %rdx
	testb	$6, %dl
	jne	.LBB55_6
# %bb.2:                                # %"$4"
                                        #   in Loop: Header=BB55_1 Depth=1
	movq	8(%rax), %rax
	cmpq	%r8, %rdx
	jb	.LBB55_4
# %bb.3:                                # %"$4"
                                        #   in Loop: Header=BB55_1 Depth=1
	cmpq	%r9, %rdx
	ja	.LBB55_4
# %bb.7:                                # %"$7"
	callq	protErr
.LBB55_5:                               # %"$10"
	movl	$18, %eax
	addq	$40, %rsp
	retq
.LBB55_6:                               # %"$3"
	callq	varErr
	int3
	.seh_handlerdata
	.text
	.seh_endproc
                                        # -- End function
	.def	 _default;
	.scl	2;
	.type	32;
	.endef
	.globl	_default                        # -- Begin function _default
	.p2align	4, 0x90
_default:                               # @_default
.seh_proc _default
# %bb.0:                                # %"$1"
	pushq	%r15
	.seh_pushreg %r15
	pushq	%r14
	.seh_pushreg %r14
	pushq	%rsi
	.seh_pushreg %rsi
	pushq	%rdi
	.seh_pushreg %rdi
	pushq	%rbx
	.seh_pushreg %rbx
	subq	$32, %rsp
	.seh_stackalloc 32
	.seh_endprologue
	movq	%rcx, %r14
	movq	8(%rcx), %rcx
	leaq	SymTab+8(%rip), %rbx
	leaq	SymTab+280(%rip), %r15
	jmp	.LBB56_1
.LBB56_8:                               # %"$14"
                                        #   in Loop: Header=BB56_1 Depth=1
	movq	%rax, %rcx
	callq	evList
	.p2align	4, 0x90
.LBB56_9:                               # %"$11"
                                        #   in Loop: Header=BB56_1 Depth=1
	movq	%rax, (%rdi)
.LBB56_10:                              # %"$10"
                                        #   in Loop: Header=BB56_1 Depth=1
	movq	8(%rsi), %rcx
	testb	$15, %cl
	jne	.LBB56_11
.LBB56_1:                               # %"$2"
                                        # =>This Inner Loop Header: Depth=1
	movq	(%rcx), %rdi
	testb	$6, %dil
	jne	.LBB56_12
# %bb.2:                                # %"$4"
                                        #   in Loop: Header=BB56_1 Depth=1
	movq	8(%rcx), %rsi
	cmpq	%rbx, %rdi
	jb	.LBB56_4
# %bb.3:                                # %"$4"
                                        #   in Loop: Header=BB56_1 Depth=1
	cmpq	%r15, %rdi
	jbe	.LBB56_13
.LBB56_4:                               # %"$8"
                                        #   in Loop: Header=BB56_1 Depth=1
	movq	(%rdi), %rax
	cmpq	%rbx, %rax
	jne	.LBB56_10
# %bb.5:                                # %"$9"
                                        #   in Loop: Header=BB56_1 Depth=1
	movq	(%rsi), %rax
	testb	$6, %al
	jne	.LBB56_9
# %bb.6:                                # %"$12"
                                        #   in Loop: Header=BB56_1 Depth=1
	testb	$8, %al
	je	.LBB56_8
# %bb.7:                                # %"$15"
                                        #   in Loop: Header=BB56_1 Depth=1
	movq	(%rax), %rax
	jmp	.LBB56_9
.LBB56_11:                              # %"$18"
	addq	$32, %rsp
	popq	%rbx
	popq	%rdi
	popq	%rsi
	popq	%r14
	popq	%r15
	retq
.LBB56_12:                              # %"$3"
	movq	%r14, %rcx
	movq	%rdi, %rdx
	callq	varErr
.LBB56_13:                              # %"$7"
	movq	%r14, %rcx
	movq	%rdi, %rdx
	callq	protErr
	int3
	.seh_handlerdata
	.text
	.seh_endproc
                                        # -- End function
	.def	 _push;
	.scl	2;
	.type	32;
	.endef
	.globl	_push                           # -- Begin function _push
	.p2align	4, 0x90
_push:                                  # @_push
.seh_proc _push
# %bb.0:                                # %"$1"
	pushq	%rbp
	.seh_pushreg %rbp
	pushq	%r14
	.seh_pushreg %r14
	pushq	%rsi
	.seh_pushreg %rsi
	pushq	%rdi
	.seh_pushreg %rdi
	pushq	%rbx
	.seh_pushreg %rbx
	movq	%rsp, %rbp
	.seh_setframe %rbp, 0
	.seh_endprologue
	movq	%rcx, %rdi
	movq	8(%rcx), %rax
	movq	(%rax), %rsi
	movq	8(%rax), %rbx
	testb	$6, %sil
	jne	.LBB57_4
# %bb.1:                                # %"$3"
	testb	$8, %sil
	jne	.LBB57_2
# %bb.3:                                # %"$5"
	subq	$32, %rsp
	movq	%rsi, %rcx
	callq	evList
	addq	$32, %rsp
	movq	%rax, %rsi
	jmp	.LBB57_4
.LBB57_2:                               # %"$6"
	movq	(%rsi), %rsi
.LBB57_4:                               # %"$2"
	testb	$6, %sil
	jne	.LBB57_23
# %bb.5:                                # %"$8"
	leaq	SymTab+8(%rip), %rax
	cmpq	%rax, %rsi
	jb	.LBB57_7
# %bb.6:                                # %"$8"
	leaq	SymTab+280(%rip), %rax
	cmpq	%rax, %rsi
	jbe	.LBB57_24
.LBB57_7:                               # %"$12"
	movq	env(%rip), %rcx
	movl	$16, %eax
	callq	___chkstk_ms
	subq	%rax, %rsp
	movq	%rsp, %r14
	movq	%rsi, (%r14)
	movq	%r14, %rax
	orq	$8, %rax
	movq	%rcx, (%rax)
	movq	%r14, env(%rip)
	testb	$8, %sil
	je	.LBB57_17
# %bb.8:                                # %"$14"
	movq	-8(%rsi), %rax
	testb	$8, %al
	je	.LBB57_17
# %bb.9:                                # %"$15"
	testb	$6, %al
	je	.LBB57_11
# %bb.10:
	leaq	-8(%rsi), %rcx
	addq	%rax, %rax
	jb	.LBB57_17
	jmp	.LBB57_15
.LBB57_11:                              # %"$2.i"
	andq	$-9, %rax
	.p2align	4, 0x90
.LBB57_12:                              # %"$4.i"
                                        # =>This Inner Loop Header: Depth=1
	movq	%rax, %rcx
	movq	8(%rax), %rax
	testb	$6, %al
	je	.LBB57_12
# %bb.13:
	addq	$8, %rcx
	addq	%rax, %rax
	jb	.LBB57_17
.LBB57_15:                              # %"$7.i"
	leaq	(%rax,%rax), %rdx
	movl	$2, %r8d
	shldq	$62, %rdx, %r8
	addq	%rax, %rax
	movq	%r8, (%rcx)
	jb	.LBB57_17
# %bb.16:                               # %"$9.i"
	subq	$32, %rsp
	movq	%rdi, %rcx
	movq	%rsi, %rdx
	callq	db
	addq	$32, %rsp
	jmp	.LBB57_17
.LBB57_20:                              # %"$21"
                                        #   in Loop: Header=BB57_17 Depth=1
	subq	$32, %rsp
	movq	%rdi, %rcx
	callq	evList
	addq	$32, %rsp
	movq	%rax, %rdi
	.p2align	4, 0x90
.LBB57_21:                              # %"$18"
                                        #   in Loop: Header=BB57_17 Depth=1
	movq	(%rsi), %rdx
	subq	$32, %rsp
	movq	%rdi, %rcx
	callq	cons
	addq	$32, %rsp
	movq	%rax, (%rsi)
	testb	$15, %bl
	jne	.LBB57_22
.LBB57_17:                              # %"$17"
                                        # =>This Inner Loop Header: Depth=1
	movq	(%rbx), %rdi
	movq	8(%rbx), %rbx
	testb	$6, %dil
	jne	.LBB57_21
# %bb.18:                               # %"$19"
                                        #   in Loop: Header=BB57_17 Depth=1
	testb	$8, %dil
	je	.LBB57_20
# %bb.19:                               # %"$22"
                                        #   in Loop: Header=BB57_17 Depth=1
	movq	(%rdi), %rdi
	jmp	.LBB57_21
.LBB57_22:                              # %"$24"
	movq	8(%r14), %rax
	movq	%rax, env(%rip)
	movq	%rdi, %rax
	movq	%rbp, %rsp
	popq	%rbx
	popq	%rdi
	popq	%rsi
	popq	%r14
	popq	%rbp
	retq
.LBB57_23:                              # %"$7"
	subq	$32, %rsp
	movq	%rdi, %rcx
	movq	%rsi, %rdx
	callq	varErr
.LBB57_24:                              # %"$11"
	subq	$32, %rsp
	movq	%rdi, %rcx
	movq	%rsi, %rdx
	callq	protErr
	int3
	.seh_handlerdata
	.text
	.seh_endproc
                                        # -- End function
	.def	 _push1;
	.scl	2;
	.type	32;
	.endef
	.globl	_push1                          # -- Begin function _push1
	.p2align	4, 0x90
_push1:                                 # @_push1
.seh_proc _push1
# %bb.0:                                # %"$1"
	pushq	%rbp
	.seh_pushreg %rbp
	pushq	%r15
	.seh_pushreg %r15
	pushq	%r14
	.seh_pushreg %r14
	pushq	%r12
	.seh_pushreg %r12
	pushq	%rsi
	.seh_pushreg %rsi
	pushq	%rdi
	.seh_pushreg %rdi
	pushq	%rbx
	.seh_pushreg %rbx
	movq	%rsp, %rbp
	.seh_setframe %rbp, 0
	.seh_endprologue
	movq	%rcx, %rdi
	movq	8(%rcx), %rax
	movq	(%rax), %r14
	movq	8(%rax), %r12
	testb	$6, %r14b
	jne	.LBB58_4
# %bb.1:                                # %"$3"
	testb	$8, %r14b
	jne	.LBB58_2
# %bb.3:                                # %"$5"
	subq	$32, %rsp
	movq	%r14, %rcx
	callq	evList
	addq	$32, %rsp
	movq	%rax, %r14
	jmp	.LBB58_4
.LBB58_2:                               # %"$6"
	movq	(%r14), %r14
.LBB58_4:                               # %"$2"
	testb	$6, %r14b
	jne	.LBB58_28
# %bb.5:                                # %"$8"
	leaq	SymTab+8(%rip), %rax
	cmpq	%rax, %r14
	jb	.LBB58_7
# %bb.6:                                # %"$8"
	leaq	SymTab+280(%rip), %rax
	cmpq	%rax, %r14
	jbe	.LBB58_29
.LBB58_7:                               # %"$12"
	movq	env(%rip), %rcx
	movl	$16, %eax
	callq	___chkstk_ms
	subq	%rax, %rsp
	movq	%rsp, %r15
	movq	%r14, (%r15)
	movq	%r15, %rax
	orq	$8, %rax
	movq	%rcx, (%rax)
	movq	%r15, env(%rip)
	testb	$8, %r14b
	je	.LBB58_17
# %bb.8:                                # %"$14"
	movq	-8(%r14), %rax
	testb	$8, %al
	je	.LBB58_17
# %bb.9:                                # %"$15"
	testb	$6, %al
	je	.LBB58_11
# %bb.10:
	leaq	-8(%r14), %rcx
	addq	%rax, %rax
	jb	.LBB58_17
	jmp	.LBB58_15
.LBB58_11:                              # %"$2.i"
	andq	$-9, %rax
	.p2align	4, 0x90
.LBB58_12:                              # %"$4.i"
                                        # =>This Inner Loop Header: Depth=1
	movq	%rax, %rcx
	movq	8(%rax), %rax
	testb	$6, %al
	je	.LBB58_12
# %bb.13:
	addq	$8, %rcx
	addq	%rax, %rax
	jb	.LBB58_17
.LBB58_15:                              # %"$7.i"
	leaq	(%rax,%rax), %rdx
	movl	$2, %r8d
	shldq	$62, %rdx, %r8
	addq	%rax, %rax
	movq	%r8, (%rcx)
	jb	.LBB58_17
# %bb.16:                               # %"$9.i"
	subq	$32, %rsp
	movq	%rdi, %rcx
	movq	%r14, %rdx
	callq	db
	addq	$32, %rsp
	jmp	.LBB58_17
	.p2align	4, 0x90
.LBB58_25:                              # %"$29.critedge"
                                        #   in Loop: Header=BB58_17 Depth=1
	subq	$32, %rsp
	movq	%rdi, %rcx
	movq	%rsi, %rdx
	callq	cons
	addq	$32, %rsp
	movq	%rax, (%r14)
.LBB58_26:                              # %"$30"
                                        #   in Loop: Header=BB58_17 Depth=1
	testb	$15, %r12b
	jne	.LBB58_27
.LBB58_17:                              # %"$17"
                                        # =>This Loop Header: Depth=1
                                        #     Child Loop BB58_23 Depth 2
	movq	(%r12), %rdi
	movq	8(%r12), %r12
	testb	$6, %dil
	jne	.LBB58_21
# %bb.18:                               # %"$19"
                                        #   in Loop: Header=BB58_17 Depth=1
	testb	$8, %dil
	jne	.LBB58_19
# %bb.20:                               # %"$21"
                                        #   in Loop: Header=BB58_17 Depth=1
	subq	$32, %rsp
	movq	%rdi, %rcx
	callq	evList
	addq	$32, %rsp
	movq	%rax, %rdi
	jmp	.LBB58_21
.LBB58_19:                              # %"$22"
                                        #   in Loop: Header=BB58_17 Depth=1
	movq	(%rdi), %rdi
	.p2align	4, 0x90
.LBB58_21:                              # %"$18"
                                        #   in Loop: Header=BB58_17 Depth=1
	movq	(%r14), %rsi
	testb	$15, %sil
	jne	.LBB58_25
# %bb.22:                               # %"$24.preheader"
                                        #   in Loop: Header=BB58_17 Depth=1
	movq	%rsi, %rbx
	.p2align	4, 0x90
.LBB58_23:                              # %"$24"
                                        #   Parent Loop BB58_17 Depth=1
                                        # =>  This Inner Loop Header: Depth=2
	movq	(%rbx), %rdx
	subq	$32, %rsp
	movq	%rdi, %rcx
	callq	equal
	addq	$32, %rsp
	testb	$1, %al
	jne	.LBB58_26
# %bb.24:                               # %"$27"
                                        #   in Loop: Header=BB58_23 Depth=2
	movq	8(%rbx), %rbx
	testb	$15, %bl
	je	.LBB58_23
	jmp	.LBB58_25
.LBB58_27:                              # %"$32"
	movq	8(%r15), %rax
	movq	%rax, env(%rip)
	movq	%rdi, %rax
	movq	%rbp, %rsp
	popq	%rbx
	popq	%rdi
	popq	%rsi
	popq	%r12
	popq	%r14
	popq	%r15
	popq	%rbp
	retq
.LBB58_28:                              # %"$7"
	subq	$32, %rsp
	movq	%rdi, %rcx
	movq	%r14, %rdx
	callq	varErr
.LBB58_29:                              # %"$11"
	subq	$32, %rsp
	movq	%rdi, %rcx
	movq	%r14, %rdx
	callq	protErr
	int3
	.seh_handlerdata
	.text
	.seh_endproc
                                        # -- End function
	.def	 _push1q;
	.scl	2;
	.type	32;
	.endef
	.globl	_push1q                         # -- Begin function _push1q
	.p2align	4, 0x90
_push1q:                                # @_push1q
.seh_proc _push1q
# %bb.0:                                # %"$1"
	pushq	%rbp
	.seh_pushreg %rbp
	pushq	%r14
	.seh_pushreg %r14
	pushq	%rsi
	.seh_pushreg %rsi
	pushq	%rdi
	.seh_pushreg %rdi
	pushq	%rbx
	.seh_pushreg %rbx
	movq	%rsp, %rbp
	.seh_setframe %rbp, 0
	.seh_endprologue
	movq	%rcx, %rdi
	movq	8(%rcx), %rax
	movq	(%rax), %rsi
	movq	8(%rax), %rbx
	testb	$6, %sil
	jne	.LBB59_4
# %bb.1:                                # %"$3"
	testb	$8, %sil
	jne	.LBB59_2
# %bb.3:                                # %"$5"
	subq	$32, %rsp
	movq	%rsi, %rcx
	callq	evList
	addq	$32, %rsp
	movq	%rax, %rsi
	jmp	.LBB59_4
.LBB59_2:                               # %"$6"
	movq	(%rsi), %rsi
.LBB59_4:                               # %"$2"
	testb	$6, %sil
	jne	.LBB59_28
# %bb.5:                                # %"$8"
	leaq	SymTab+8(%rip), %rax
	cmpq	%rax, %rsi
	jb	.LBB59_7
# %bb.6:                                # %"$8"
	leaq	SymTab+280(%rip), %rax
	cmpq	%rax, %rsi
	jbe	.LBB59_29
.LBB59_7:                               # %"$12"
	movq	env(%rip), %rcx
	movl	$16, %eax
	callq	___chkstk_ms
	subq	%rax, %rsp
	movq	%rsp, %r14
	movq	%rsi, (%r14)
	movq	%r14, %rax
	orq	$8, %rax
	movq	%rcx, (%rax)
	movq	%r14, env(%rip)
	testb	$8, %sil
	je	.LBB59_17
# %bb.8:                                # %"$14"
	movq	-8(%rsi), %rax
	testb	$8, %al
	je	.LBB59_17
# %bb.9:                                # %"$15"
	testb	$6, %al
	je	.LBB59_11
# %bb.10:
	leaq	-8(%rsi), %rcx
	addq	%rax, %rax
	jb	.LBB59_17
	jmp	.LBB59_15
.LBB59_11:                              # %"$2.i"
	andq	$-9, %rax
	.p2align	4, 0x90
.LBB59_12:                              # %"$4.i"
                                        # =>This Inner Loop Header: Depth=1
	movq	%rax, %rcx
	movq	8(%rax), %rax
	testb	$6, %al
	je	.LBB59_12
# %bb.13:
	addq	$8, %rcx
	addq	%rax, %rax
	jb	.LBB59_17
.LBB59_15:                              # %"$7.i"
	leaq	(%rax,%rax), %rdx
	movl	$2, %r8d
	shldq	$62, %rdx, %r8
	addq	%rax, %rax
	movq	%r8, (%rcx)
	jb	.LBB59_17
# %bb.16:                               # %"$9.i"
	subq	$32, %rsp
	movq	%rdi, %rcx
	movq	%rsi, %rdx
	callq	db
	addq	$32, %rsp
	jmp	.LBB59_17
	.p2align	4, 0x90
.LBB59_25:                              # %"$29.critedge"
                                        #   in Loop: Header=BB59_17 Depth=1
	subq	$32, %rsp
	movq	%rdi, %rcx
	callq	cons
	addq	$32, %rsp
	movq	%rax, (%rsi)
.LBB59_26:                              # %"$30"
                                        #   in Loop: Header=BB59_17 Depth=1
	testb	$15, %bl
	jne	.LBB59_27
.LBB59_17:                              # %"$17"
                                        # =>This Loop Header: Depth=1
                                        #     Child Loop BB59_23 Depth 2
	movq	(%rbx), %rdi
	movq	8(%rbx), %rbx
	testb	$6, %dil
	jne	.LBB59_21
# %bb.18:                               # %"$19"
                                        #   in Loop: Header=BB59_17 Depth=1
	testb	$8, %dil
	jne	.LBB59_19
# %bb.20:                               # %"$21"
                                        #   in Loop: Header=BB59_17 Depth=1
	subq	$32, %rsp
	movq	%rdi, %rcx
	callq	evList
	addq	$32, %rsp
	movq	%rax, %rdi
	jmp	.LBB59_21
.LBB59_19:                              # %"$22"
                                        #   in Loop: Header=BB59_17 Depth=1
	movq	(%rdi), %rdi
	.p2align	4, 0x90
.LBB59_21:                              # %"$18"
                                        #   in Loop: Header=BB59_17 Depth=1
	movq	(%rsi), %rdx
	testb	$15, %dl
	jne	.LBB59_25
# %bb.22:                               # %"$24.preheader"
                                        #   in Loop: Header=BB59_17 Depth=1
	movq	%rdx, %rax
	.p2align	4, 0x90
.LBB59_23:                              # %"$24"
                                        #   Parent Loop BB59_17 Depth=1
                                        # =>  This Inner Loop Header: Depth=2
	cmpq	(%rax), %rdi
	je	.LBB59_26
# %bb.24:                               # %"$27"
                                        #   in Loop: Header=BB59_23 Depth=2
	movq	8(%rax), %rax
	testb	$15, %al
	je	.LBB59_23
	jmp	.LBB59_25
.LBB59_27:                              # %"$32"
	movq	8(%r14), %rax
	movq	%rax, env(%rip)
	movq	%rdi, %rax
	movq	%rbp, %rsp
	popq	%rbx
	popq	%rdi
	popq	%rsi
	popq	%r14
	popq	%rbp
	retq
.LBB59_28:                              # %"$7"
	subq	$32, %rsp
	movq	%rdi, %rcx
	movq	%rsi, %rdx
	callq	varErr
.LBB59_29:                              # %"$11"
	subq	$32, %rsp
	movq	%rdi, %rcx
	movq	%rsi, %rdx
	callq	protErr
	int3
	.seh_handlerdata
	.text
	.seh_endproc
                                        # -- End function
	.def	 _pop;
	.scl	2;
	.type	32;
	.endef
	.globl	_pop                            # -- Begin function _pop
	.p2align	4, 0x90
_pop:                                   # @_pop
.seh_proc _pop
# %bb.0:                                # %"$1"
	pushq	%rsi
	.seh_pushreg %rsi
	pushq	%rdi
	.seh_pushreg %rdi
	subq	$40, %rsp
	.seh_stackalloc 40
	.seh_endprologue
	movq	%rcx, %rdi
	movq	8(%rcx), %rax
	movq	(%rax), %rsi
	testb	$6, %sil
	jne	.LBB60_4
# %bb.1:                                # %"$3"
	testb	$8, %sil
	jne	.LBB60_2
# %bb.3:                                # %"$5"
	movq	%rsi, %rcx
	callq	evList
	movq	%rax, %rsi
	jmp	.LBB60_4
.LBB60_2:                               # %"$6"
	movq	(%rsi), %rsi
.LBB60_4:                               # %"$2"
	testb	$6, %sil
	jne	.LBB60_20
# %bb.5:                                # %"$8"
	leaq	SymTab+8(%rip), %rax
	cmpq	%rax, %rsi
	jb	.LBB60_7
# %bb.6:                                # %"$8"
	leaq	SymTab+280(%rip), %rax
	cmpq	%rax, %rsi
	jbe	.LBB60_21
.LBB60_7:                               # %"$12"
	testb	$8, %sil
	je	.LBB60_17
# %bb.8:                                # %"$14"
	movq	-8(%rsi), %rax
	testb	$8, %al
	je	.LBB60_17
# %bb.9:                                # %"$15"
	testb	$6, %al
	je	.LBB60_11
# %bb.10:
	leaq	-8(%rsi), %rcx
	addq	%rax, %rax
	jae	.LBB60_15
	jmp	.LBB60_17
.LBB60_11:                              # %"$2.i"
	andq	$-9, %rax
	.p2align	4, 0x90
.LBB60_12:                              # %"$4.i"
                                        # =>This Inner Loop Header: Depth=1
	movq	%rax, %rcx
	movq	8(%rax), %rax
	testb	$6, %al
	je	.LBB60_12
# %bb.13:
	addq	$8, %rcx
	addq	%rax, %rax
	jb	.LBB60_17
.LBB60_15:                              # %"$7.i"
	leaq	(%rax,%rax), %rdx
	movl	$2, %r8d
	shldq	$62, %rdx, %r8
	addq	%rax, %rax
	movq	%r8, (%rcx)
	jb	.LBB60_17
# %bb.16:                               # %"$9.i"
	movq	%rdi, %rcx
	movq	%rsi, %rdx
	callq	db
.LBB60_17:                              # %"$16"
	movq	(%rsi), %rax
	testb	$15, %al
	jne	.LBB60_19
# %bb.18:                               # %"$18"
	movq	8(%rax), %rcx
	movq	%rcx, (%rsi)
	movq	(%rax), %rax
.LBB60_19:                              # %"$19"
	addq	$40, %rsp
	popq	%rdi
	popq	%rsi
	retq
.LBB60_20:                              # %"$7"
	movq	%rdi, %rcx
	movq	%rsi, %rdx
	callq	varErr
.LBB60_21:                              # %"$11"
	movq	%rdi, %rcx
	movq	%rsi, %rdx
	callq	protErr
	int3
	.seh_handlerdata
	.text
	.seh_endproc
                                        # -- End function
	.def	 _popq;
	.scl	2;
	.type	32;
	.endef
	.globl	_popq                           # -- Begin function _popq
	.p2align	4, 0x90
_popq:                                  # @_popq
.seh_proc _popq
# %bb.0:                                # %"$1"
	subq	$40, %rsp
	.seh_stackalloc 40
	.seh_endprologue
	movq	8(%rcx), %rax
	movq	(%rax), %rdx
	testb	$6, %dl
	jne	.LBB61_6
# %bb.1:                                # %"$3"
	leaq	SymTab+8(%rip), %rax
	cmpq	%rax, %rdx
	jb	.LBB61_3
# %bb.2:                                # %"$3"
	leaq	SymTab+280(%rip), %rax
	cmpq	%rax, %rdx
	jbe	.LBB61_7
.LBB61_3:                               # %"$7"
	movq	(%rdx), %rax
	testb	$15, %al
	jne	.LBB61_5
# %bb.4:                                # %"$9"
	movq	8(%rax), %rcx
	movq	%rcx, (%rdx)
	movq	(%rax), %rax
.LBB61_5:                               # %"$10"
	addq	$40, %rsp
	retq
.LBB61_6:                               # %"$2"
	callq	varErr
.LBB61_7:                               # %"$6"
	callq	protErr
	int3
	.seh_handlerdata
	.text
	.seh_endproc
                                        # -- End function
	.def	 _shift;
	.scl	2;
	.type	32;
	.endef
	.globl	_shift                          # -- Begin function _shift
	.p2align	4, 0x90
_shift:                                 # @_shift
.seh_proc _shift
# %bb.0:                                # %"$1"
	pushq	%rsi
	.seh_pushreg %rsi
	pushq	%rdi
	.seh_pushreg %rdi
	pushq	%rbx
	.seh_pushreg %rbx
	subq	$32, %rsp
	.seh_stackalloc 32
	.seh_endprologue
	movq	%rcx, %rsi
	movq	8(%rcx), %rax
	movq	(%rax), %rdi
	testb	$6, %dil
	jne	.LBB62_4
# %bb.1:                                # %"$3"
	testb	$8, %dil
	jne	.LBB62_2
# %bb.3:                                # %"$5"
	movq	%rdi, %rcx
	callq	evList
	movq	%rax, %rdi
	jmp	.LBB62_4
.LBB62_2:                               # %"$6"
	movq	(%rdi), %rdi
.LBB62_4:                               # %"$2"
	testb	$6, %dil
	jne	.LBB62_20
# %bb.5:                                # %"$8"
	leaq	SymTab+8(%rip), %rbx
	cmpq	%rbx, %rdi
	jb	.LBB62_7
# %bb.6:                                # %"$8"
	leaq	SymTab+280(%rip), %rax
	cmpq	%rax, %rdi
	jbe	.LBB62_21
.LBB62_7:                               # %"$12"
	testb	$8, %dil
	je	.LBB62_17
# %bb.8:                                # %"$14"
	movq	-8(%rdi), %rax
	testb	$8, %al
	je	.LBB62_17
# %bb.9:                                # %"$15"
	testb	$6, %al
	je	.LBB62_11
# %bb.10:
	leaq	-8(%rdi), %rcx
	addq	%rax, %rax
	jae	.LBB62_15
	jmp	.LBB62_17
.LBB62_11:                              # %"$2.i"
	andq	$-9, %rax
	.p2align	4, 0x90
.LBB62_12:                              # %"$4.i"
                                        # =>This Inner Loop Header: Depth=1
	movq	%rax, %rcx
	movq	8(%rax), %rax
	testb	$6, %al
	je	.LBB62_12
# %bb.13:
	addq	$8, %rcx
	addq	%rax, %rax
	jb	.LBB62_17
.LBB62_15:                              # %"$7.i"
	leaq	(%rax,%rax), %rdx
	movl	$2, %r8d
	shldq	$62, %rdx, %r8
	addq	%rax, %rax
	movq	%r8, (%rcx)
	jb	.LBB62_17
# %bb.16:                               # %"$9.i"
	movq	%rsi, %rcx
	movq	%rdi, %rdx
	callq	db
.LBB62_17:                              # %"$16"
	movq	(%rdi), %rdx
	cmpq	%rbx, %rdx
	je	.LBB62_19
# %bb.18:                               # %"$16"
	movl	%edx, %eax
	andl	$15, %eax
	testq	%rax, %rax
	jne	.LBB62_22
.LBB62_19:                              # %"$20"
	movq	8(%rdx), %rax
	movq	%rax, (%rdi)
	addq	$32, %rsp
	popq	%rbx
	popq	%rdi
	popq	%rsi
	retq
.LBB62_20:                              # %"$7"
	movq	%rsi, %rcx
	movq	%rdi, %rdx
	callq	varErr
.LBB62_21:                              # %"$11"
	movq	%rsi, %rcx
	movq	%rdi, %rdx
	callq	protErr
.LBB62_22:                              # %"$19"
	movq	%rsi, %rcx
	callq	lstErr
	int3
	.seh_handlerdata
	.text
	.seh_endproc
                                        # -- End function
	.def	 _cut;
	.scl	2;
	.type	32;
	.endef
	.globl	_cut                            # -- Begin function _cut
	.p2align	4, 0x90
_cut:                                   # @_cut
.seh_proc _cut
# %bb.0:                                # %"$1"
	pushq	%rbp
	.seh_pushreg %rbp
	pushq	%r15
	.seh_pushreg %r15
	pushq	%r14
	.seh_pushreg %r14
	pushq	%r13
	.seh_pushreg %r13
	pushq	%r12
	.seh_pushreg %r12
	pushq	%rsi
	.seh_pushreg %rsi
	pushq	%rdi
	.seh_pushreg %rdi
	pushq	%rbx
	.seh_pushreg %rbx
	pushq	%rax
	.seh_stackalloc 8
	movq	%rsp, %rbp
	.seh_setframe %rbp, 0
	.seh_endprologue
	movq	%rcx, %rdi
	movq	8(%rcx), %rbx
	movq	(%rbx), %rax
	testb	$6, %al
	jne	.LBB63_4
# %bb.1:                                # %"$3.i"
	testb	$8, %al
	jne	.LBB63_2
# %bb.3:                                # %"$5.i"
	subq	$32, %rsp
	movq	%rax, %rcx
	callq	evList
	addq	$32, %rsp
	jmp	.LBB63_4
.LBB63_2:                               # %"$6.i"
	movq	(%rax), %rax
.LBB63_4:                               # %"$2.i"
	testb	$2, %al
	je	.LBB63_32
# %bb.5:                                # %evCnt.exit
	movq	%rax, %rcx
	shrq	$4, %rcx
	movq	%rcx, %rsi
	negq	%rsi
	testb	$8, %al
	cmoveq	%rcx, %rsi
	testq	%rsi, %rsi
	jle	.LBB63_6
# %bb.7:                                # %"$3"
	movq	8(%rbx), %rax
	movq	(%rax), %r14
	testb	$6, %r14b
	jne	.LBB63_11
# %bb.8:                                # %"$6"
	testb	$8, %r14b
	jne	.LBB63_9
# %bb.10:                               # %"$8"
	subq	$32, %rsp
	movq	%r14, %rcx
	callq	evList
	addq	$32, %rsp
	movq	%rax, %r14
	jmp	.LBB63_11
.LBB63_6:
	leaq	SymTab+8(%rip), %r12
	jmp	.LBB63_31
.LBB63_9:                               # %"$9"
	movq	(%r14), %r14
.LBB63_11:                              # %"$5"
	testb	$6, %r14b
	jne	.LBB63_33
# %bb.12:                               # %"$11"
	leaq	SymTab+8(%rip), %rax
	cmpq	%rax, %r14
	jb	.LBB63_14
# %bb.13:                               # %"$11"
	leaq	SymTab+280(%rip), %rax
	cmpq	%rax, %r14
	jbe	.LBB63_34
.LBB63_14:                              # %"$15"
	testb	$8, %r14b
	je	.LBB63_24
# %bb.15:                               # %"$17"
	movq	-8(%r14), %rax
	testb	$8, %al
	je	.LBB63_24
# %bb.16:                               # %"$18"
	testb	$6, %al
	je	.LBB63_18
# %bb.17:
	leaq	-8(%r14), %rcx
	addq	%rax, %rax
	jae	.LBB63_22
	jmp	.LBB63_24
.LBB63_18:                              # %"$2.i8"
	andq	$-9, %rax
	.p2align	4, 0x90
.LBB63_19:                              # %"$4.i"
                                        # =>This Inner Loop Header: Depth=1
	movq	%rax, %rcx
	movq	8(%rax), %rax
	testb	$6, %al
	je	.LBB63_19
# %bb.20:
	addq	$8, %rcx
	addq	%rax, %rax
	jb	.LBB63_24
.LBB63_22:                              # %"$7.i"
	leaq	(%rax,%rax), %rdx
	movl	$2, %r8d
	shldq	$62, %rdx, %r8
	addq	%rax, %rax
	movq	%r8, (%rcx)
	jb	.LBB63_24
# %bb.23:                               # %"$9.i"
	subq	$32, %rsp
	movq	%rdi, %rcx
	movq	%r14, %rdx
	callq	db
	addq	$32, %rsp
.LBB63_24:                              # %"$19"
	movq	(%r14), %r12
	testb	$15, %r12b
	jne	.LBB63_31
# %bb.25:                               # %"$21"
	movq	env(%rip), %rcx
	movl	$16, %eax
	callq	___chkstk_ms
	subq	%rax, %rsp
	movq	%rsp, %r15
	movq	%r12, (%r15)
	movq	%r15, %rax
	orq	$8, %rax
	movq	%rcx, (%rax)
	movq	%r15, env(%rip)
	movq	(%r12), %rcx
	movq	8(%r12), %rdi
	subq	$32, %rsp
	leaq	SymTab+8(%rip), %rdx
	callq	cons
	addq	$32, %rsp
	movq	%rax, %r12
	movq	env(%rip), %rcx
	movl	$16, %eax
	callq	___chkstk_ms
	subq	%rax, %rsp
	movq	%rsp, %rax
	movq	%r12, (%rax)
	movq	%rax, %rdx
	orq	$8, %rdx
	movq	%rcx, (%rdx)
	movq	%rax, env(%rip)
	cmpq	$1, %rsi
	je	.LBB63_30
# %bb.26:                               # %"$21"
	movl	%edi, %eax
	andl	$15, %eax
	testq	%rax, %rax
	jne	.LBB63_30
# %bb.27:                               # %"$26.preheader"
	addq	$-2, %rsi
	leaq	SymTab+8(%rip), %r13
	movq	%r12, %rbx
	.p2align	4, 0x90
.LBB63_28:                              # %"$26"
                                        # =>This Inner Loop Header: Depth=1
	movq	(%rdi), %rcx
	movq	8(%rdi), %rdi
	subq	$32, %rsp
	movq	%r13, %rdx
	callq	cons
	addq	$32, %rsp
	movq	%rax, 8(%rbx)
	addq	$-1, %rsi
	jae	.LBB63_30
# %bb.29:                               # %"$26"
                                        #   in Loop: Header=BB63_28 Depth=1
	movl	%edi, %ecx
	andl	$15, %ecx
	testq	%rcx, %rcx
	movq	%rax, %rbx
	je	.LBB63_28
.LBB63_30:                              # %"$27"
	movq	%rdi, (%r14)
	movq	8(%r15), %rax
	movq	%rax, env(%rip)
.LBB63_31:                              # %"$4"
	movq	%r12, %rax
	leaq	8(%rbp), %rsp
	popq	%rbx
	popq	%rdi
	popq	%rsi
	popq	%r12
	popq	%r13
	popq	%r14
	popq	%r15
	popq	%rbp
	retq
.LBB63_32:                              # %"$2.i.i"
	subq	$32, %rsp
	movq	%rdi, %rcx
	movq	%rax, %rdx
	callq	cntErr
.LBB63_33:                              # %"$10"
	subq	$32, %rsp
	movq	%rdi, %rcx
	movq	%r14, %rdx
	callq	varErr
.LBB63_34:                              # %"$14"
	subq	$32, %rsp
	movq	%rdi, %rcx
	movq	%r14, %rdx
	callq	protErr
	int3
	.seh_handlerdata
	.text
	.seh_endproc
                                        # -- End function
	.def	 _del;
	.scl	2;
	.type	32;
	.endef
	.globl	_del                            # -- Begin function _del
	.p2align	4, 0x90
_del:                                   # @_del
.seh_proc _del
# %bb.0:                                # %"$1"
	pushq	%rbp
	.seh_pushreg %rbp
	pushq	%r15
	.seh_pushreg %r15
	pushq	%r14
	.seh_pushreg %r14
	pushq	%r13
	.seh_pushreg %r13
	pushq	%r12
	.seh_pushreg %r12
	pushq	%rsi
	.seh_pushreg %rsi
	pushq	%rdi
	.seh_pushreg %rdi
	pushq	%rbx
	.seh_pushreg %rbx
	subq	$24, %rsp
	.seh_stackalloc 24
	leaq	16(%rsp), %rbp
	.seh_setframe %rbp, 16
	.seh_endprologue
	movq	%rcx, %rbx
	movq	8(%rcx), %rax
	movq	(%rax), %r15
	movq	8(%rax), %rsi
	testb	$6, %r15b
	jne	.LBB64_4
# %bb.1:                                # %"$3"
	testb	$8, %r15b
	jne	.LBB64_2
# %bb.3:                                # %"$5"
	subq	$32, %rsp
	movq	%r15, %rcx
	callq	evList
	addq	$32, %rsp
	movq	%rax, %r15
	jmp	.LBB64_4
.LBB64_2:                               # %"$6"
	movq	(%r15), %r15
.LBB64_4:                               # %"$2"
	movq	env(%rip), %rcx
	movl	$16, %eax
	callq	___chkstk_ms
	subq	%rax, %rsp
	movq	%rsp, %r12
	movq	%r15, (%r12)
	movq	%r12, %rax
	orq	$8, %rax
	movq	%rcx, (%rax)
	movq	%r12, env(%rip)
	movq	(%rsi), %r13
	movq	8(%rsi), %rdi
	testb	$6, %r13b
	jne	.LBB64_8
# %bb.5:                                # %"$8"
	testb	$8, %r13b
	jne	.LBB64_6
# %bb.7:                                # %"$10"
	subq	$32, %rsp
	movq	%r13, %rcx
	callq	evList
	addq	$32, %rsp
	movq	%rax, %r13
	jmp	.LBB64_8
.LBB64_6:                               # %"$11"
	movq	(%r13), %r13
.LBB64_8:                               # %"$7"
	testb	$6, %r13b
	jne	.LBB64_44
# %bb.9:                                # %"$13"
	leaq	SymTab+8(%rip), %rsi
	cmpq	%rsi, %r13
	jb	.LBB64_11
# %bb.10:                               # %"$13"
	leaq	SymTab+280(%rip), %rax
	cmpq	%rax, %r13
	jbe	.LBB64_45
.LBB64_11:                              # %"$17"
	movq	env(%rip), %rcx
	movl	$16, %eax
	callq	___chkstk_ms
	subq	%rax, %rsp
	movq	%rsp, %rax
	movq	%r13, (%rax)
	movq	%rax, %rdx
	orq	$8, %rdx
	movq	%rcx, (%rdx)
	movq	%rax, env(%rip)
	movq	(%rdi), %r14
	testb	$6, %r14b
	jne	.LBB64_15
# %bb.12:                               # %"$19"
	testb	$8, %r14b
	jne	.LBB64_13
# %bb.14:                               # %"$21"
	subq	$32, %rsp
	movq	%r14, %rcx
	callq	evList
	addq	$32, %rsp
	movq	%rax, %r14
.LBB64_15:                              # %"$18"
	testb	$8, %r13b
	je	.LBB64_25
.LBB64_16:                              # %"$24"
	movq	-8(%r13), %rax
	testb	$8, %al
	je	.LBB64_25
# %bb.17:                               # %"$25"
	testb	$6, %al
	je	.LBB64_19
# %bb.18:
	leaq	-8(%r13), %rcx
	addq	%rax, %rax
	jae	.LBB64_23
	jmp	.LBB64_25
.LBB64_13:                              # %"$22"
	movq	(%r14), %r14
	testb	$8, %r13b
	jne	.LBB64_16
	jmp	.LBB64_25
.LBB64_19:                              # %"$2.i"
	andq	$-9, %rax
	.p2align	4, 0x90
.LBB64_20:                              # %"$4.i"
                                        # =>This Inner Loop Header: Depth=1
	movq	%rax, %rcx
	movq	8(%rax), %rax
	testb	$6, %al
	je	.LBB64_20
# %bb.21:
	addq	$8, %rcx
	addq	%rax, %rax
	jb	.LBB64_25
.LBB64_23:                              # %"$7.i"
	leaq	(%rax,%rax), %rdx
	movl	$2, %r8d
	shldq	$62, %rdx, %r8
	addq	%rax, %rax
	movq	%r8, (%rcx)
	jb	.LBB64_25
# %bb.24:                               # %"$9.i"
	subq	$32, %rsp
	movq	%rbx, %rcx
	movq	%r13, %rdx
	callq	db
	addq	$32, %rsp
.LBB64_25:                              # %"$26"
	cmpq	%rsi, %r14
	movq	(%r13), %rbx
	jne	.LBB64_26
# %bb.30:                               # %"$27.us"
	testb	$15, %bl
	jne	.LBB64_43
# %bb.31:                               # %"$28.us"
	movq	(%rbx), %rsi
	movq	8(%rbx), %rbx
	subq	$32, %rsp
	movq	%r15, %rcx
	movq	%rsi, %rdx
	callq	equal
	addq	$32, %rsp
	testb	$1, %al
	je	.LBB64_28
# %bb.32:                               # %"$31.us"
	movq	%rbx, (%r13)
	jmp	.LBB64_43
	.p2align	4, 0x90
.LBB64_26:                              # %"$27.preheader"
                                        # =>This Inner Loop Header: Depth=1
	testb	$15, %bl
	jne	.LBB64_43
# %bb.27:                               # %"$28"
                                        #   in Loop: Header=BB64_26 Depth=1
	movq	(%rbx), %rsi
	movq	8(%rbx), %rbx
	subq	$32, %rsp
	movq	%r15, %rcx
	movq	%rsi, %rdx
	callq	equal
	addq	$32, %rsp
	testb	$1, %al
	je	.LBB64_28
# %bb.46:                               # %"$31"
                                        #   in Loop: Header=BB64_26 Depth=1
	movq	%rbx, (%r13)
	jmp	.LBB64_26
.LBB64_28:
	movq	%r12, (%rbp)                    # 8-byte Spill
	movq	%rbx, %r12
	subq	$32, %rsp
	leaq	SymTab+8(%rip), %rdi
	movq	%rsi, %rcx
	movq	%rdi, %rdx
	callq	cons
	addq	$32, %rsp
	movq	%rax, %rbx
	movq	env(%rip), %rcx
	movl	$16, %eax
	callq	___chkstk_ms
	subq	%rax, %rsp
	movq	%rsp, %rdx
	movq	%rbx, (%rdx)
	movq	%rdx, %rax
	orq	$8, %rax
	movq	%rcx, (%rax)
	movq	%rdx, -8(%rbp)                  # 8-byte Spill
	movq	%rdx, env(%rip)
	testb	$15, %r12b
	je	.LBB64_33
# %bb.29:
	movq	%rbx, %rsi
.LBB64_42:                              # %"$35"
	movq	-8(%rbp), %rax                  # 8-byte Reload
	movq	8(%rax), %rax
	movq	%rax, env(%rip)
	movq	%r12, 8(%rsi)
	movq	%rbx, (%r13)
	movq	(%rbp), %r12                    # 8-byte Reload
.LBB64_43:                              # %"$29"
	movq	8(%r12), %rax
	movq	%rax, env(%rip)
	movq	%rbx, %rax
	leaq	8(%rbp), %rsp
	popq	%rbx
	popq	%rdi
	popq	%rsi
	popq	%r12
	popq	%r13
	popq	%r14
	popq	%r15
	popq	%rbp
	retq
.LBB64_33:                              # %"$34.lr.ph"
	cmpq	%rdi, %r14
	jne	.LBB64_34
# %bb.38:                               # %"$34.us.preheader"
	leaq	SymTab+8(%rip), %r14
	movq	%rbx, %rdi
	.p2align	4, 0x90
.LBB64_39:                              # %"$34.us"
                                        # =>This Inner Loop Header: Depth=1
	movq	(%r12), %rsi
	movq	8(%r12), %r12
	subq	$32, %rsp
	movq	%r15, %rcx
	movq	%rsi, %rdx
	callq	equal
	addq	$32, %rsp
	testb	$1, %al
	jne	.LBB64_40
# %bb.41:                               # %"$37.us"
                                        #   in Loop: Header=BB64_39 Depth=1
	subq	$32, %rsp
	movq	%rsi, %rcx
	movq	%r14, %rdx
	callq	cons
	addq	$32, %rsp
	movq	%rax, %rsi
	movq	%rax, 8(%rdi)
	testb	$15, %r12b
	movq	%rax, %rdi
	je	.LBB64_39
	jmp	.LBB64_42
.LBB64_34:
	leaq	SymTab+8(%rip), %r14
	movq	%rbx, %rsi
	jmp	.LBB64_35
	.p2align	4, 0x90
.LBB64_37:                              # %"$38"
                                        #   in Loop: Header=BB64_35 Depth=1
	testb	$15, %r12b
	jne	.LBB64_42
.LBB64_35:                              # %"$34"
                                        # =>This Inner Loop Header: Depth=1
	movq	(%r12), %rdi
	movq	8(%r12), %r12
	subq	$32, %rsp
	movq	%r15, %rcx
	movq	%rdi, %rdx
	callq	equal
	addq	$32, %rsp
	testb	$1, %al
	jne	.LBB64_37
# %bb.36:                               # %"$37"
                                        #   in Loop: Header=BB64_35 Depth=1
	subq	$32, %rsp
	movq	%rdi, %rcx
	movq	%r14, %rdx
	callq	cons
	addq	$32, %rsp
	movq	%rax, 8(%rsi)
	movq	%rax, %rsi
	jmp	.LBB64_37
.LBB64_40:
	movq	%rdi, %rsi
	jmp	.LBB64_42
.LBB64_44:                              # %"$12"
	subq	$32, %rsp
	movq	%rbx, %rcx
	movq	%r13, %rdx
	callq	varErr
.LBB64_45:                              # %"$16"
	subq	$32, %rsp
	movq	%rbx, %rcx
	movq	%r13, %rdx
	callq	protErr
	int3
	.seh_handlerdata
	.text
	.seh_endproc
                                        # -- End function
	.def	 _queue;
	.scl	2;
	.type	32;
	.endef
	.globl	_queue                          # -- Begin function _queue
	.p2align	4, 0x90
_queue:                                 # @_queue
.seh_proc _queue
# %bb.0:                                # %"$1"
	pushq	%rbp
	.seh_pushreg %rbp
	pushq	%r14
	.seh_pushreg %r14
	pushq	%rsi
	.seh_pushreg %rsi
	pushq	%rdi
	.seh_pushreg %rdi
	pushq	%rbx
	.seh_pushreg %rbx
	movq	%rsp, %rbp
	.seh_setframe %rbp, 0
	.seh_endprologue
	movq	%rcx, %rdi
	movq	8(%rcx), %rax
	movq	(%rax), %rsi
	movq	8(%rax), %r14
	testb	$6, %sil
	jne	.LBB65_4
# %bb.1:                                # %"$3"
	testb	$8, %sil
	jne	.LBB65_2
# %bb.3:                                # %"$5"
	subq	$32, %rsp
	movq	%rsi, %rcx
	callq	evList
	addq	$32, %rsp
	movq	%rax, %rsi
	jmp	.LBB65_4
.LBB65_2:                               # %"$6"
	movq	(%rsi), %rsi
.LBB65_4:                               # %"$2"
	testb	$6, %sil
	jne	.LBB65_25
# %bb.5:                                # %"$8"
	leaq	SymTab+8(%rip), %rax
	cmpq	%rax, %rsi
	jb	.LBB65_7
# %bb.6:                                # %"$8"
	leaq	SymTab+280(%rip), %rax
	cmpq	%rax, %rsi
	jbe	.LBB65_26
.LBB65_7:                               # %"$12"
	movq	env(%rip), %rcx
	movl	$16, %eax
	callq	___chkstk_ms
	subq	%rax, %rsp
	movq	%rsp, %rbx
	movq	%rsi, (%rbx)
	movq	%rbx, %rax
	orq	$8, %rax
	movq	%rcx, (%rax)
	movq	%rbx, env(%rip)
	testb	$8, %sil
	je	.LBB65_17
# %bb.8:                                # %"$14"
	movq	-8(%rsi), %rax
	testb	$8, %al
	je	.LBB65_17
# %bb.9:                                # %"$15"
	testb	$6, %al
	je	.LBB65_11
# %bb.10:
	leaq	-8(%rsi), %rcx
	addq	%rax, %rax
	jae	.LBB65_15
	jmp	.LBB65_17
.LBB65_11:                              # %"$2.i"
	andq	$-9, %rax
	.p2align	4, 0x90
.LBB65_12:                              # %"$4.i"
                                        # =>This Inner Loop Header: Depth=1
	movq	%rax, %rcx
	movq	8(%rax), %rax
	testb	$6, %al
	je	.LBB65_12
# %bb.13:
	addq	$8, %rcx
	addq	%rax, %rax
	jb	.LBB65_17
.LBB65_15:                              # %"$7.i"
	leaq	(%rax,%rax), %rdx
	movl	$2, %r8d
	shldq	$62, %rdx, %r8
	addq	%rax, %rax
	movq	%r8, (%rcx)
	jb	.LBB65_17
# %bb.16:                               # %"$9.i"
	subq	$32, %rsp
	movq	%rdi, %rcx
	movq	%rsi, %rdx
	callq	db
	addq	$32, %rsp
.LBB65_17:                              # %"$16"
	movq	(%r14), %rdi
	testb	$6, %dil
	jne	.LBB65_21
# %bb.18:                               # %"$18"
	testb	$8, %dil
	jne	.LBB65_19
# %bb.20:                               # %"$20"
	subq	$32, %rsp
	movq	%rdi, %rcx
	callq	evList
	addq	$32, %rsp
	movq	%rax, %rdi
	jmp	.LBB65_21
.LBB65_19:                              # %"$21"
	movq	(%rdi), %rdi
.LBB65_21:                              # %"$17"
	subq	$32, %rsp
	leaq	SymTab+8(%rip), %rdx
	movq	%rdi, %rcx
	callq	cons
	addq	$32, %rsp
	movq	(%rsi), %rcx
	testb	$15, %cl
	jne	.LBB65_24
	.p2align	4, 0x90
.LBB65_22:                              # %"$25"
                                        # =>This Inner Loop Header: Depth=1
	movq	%rcx, %rsi
	movq	8(%rcx), %rcx
	testb	$15, %cl
	je	.LBB65_22
# %bb.23:
	addq	$8, %rsi
.LBB65_24:                              # %"$24"
	movq	%rax, (%rsi)
	movq	8(%rbx), %rax
	movq	%rax, env(%rip)
	movq	%rdi, %rax
	movq	%rbp, %rsp
	popq	%rbx
	popq	%rdi
	popq	%rsi
	popq	%r14
	popq	%rbp
	retq
.LBB65_25:                              # %"$7"
	subq	$32, %rsp
	movq	%rdi, %rcx
	movq	%rsi, %rdx
	callq	varErr
.LBB65_26:                              # %"$11"
	subq	$32, %rsp
	movq	%rdi, %rcx
	movq	%rsi, %rdx
	callq	protErr
	int3
	.seh_handlerdata
	.text
	.seh_endproc
                                        # -- End function
	.def	 _fifo;
	.scl	2;
	.type	32;
	.endef
	.globl	_fifo                           # -- Begin function _fifo
	.p2align	4, 0x90
_fifo:                                  # @_fifo
.seh_proc _fifo
# %bb.0:                                # %"$1"
	pushq	%rbp
	.seh_pushreg %rbp
	pushq	%r15
	.seh_pushreg %r15
	pushq	%r14
	.seh_pushreg %r14
	pushq	%r13
	.seh_pushreg %r13
	pushq	%r12
	.seh_pushreg %r12
	pushq	%rsi
	.seh_pushreg %rsi
	pushq	%rdi
	.seh_pushreg %rdi
	pushq	%rbx
	.seh_pushreg %rbx
	pushq	%rax
	.seh_stackalloc 8
	movq	%rsp, %rbp
	.seh_setframe %rbp, 0
	.seh_endprologue
	movq	%rcx, %rbx
	movq	8(%rcx), %rax
	movq	(%rax), %r13
	movq	8(%rax), %r15
	testb	$6, %r13b
	jne	.LBB66_4
# %bb.1:                                # %"$3"
	testb	$8, %r13b
	jne	.LBB66_2
# %bb.3:                                # %"$5"
	subq	$32, %rsp
	movq	%r13, %rcx
	callq	evList
	addq	$32, %rsp
	movq	%rax, %r13
	jmp	.LBB66_4
.LBB66_2:                               # %"$6"
	movq	(%r13), %r13
.LBB66_4:                               # %"$2"
	testb	$6, %r13b
	jne	.LBB66_38
# %bb.5:                                # %"$8"
	leaq	SymTab+8(%rip), %rdi
	cmpq	%rdi, %r13
	jb	.LBB66_7
# %bb.6:                                # %"$8"
	leaq	SymTab+280(%rip), %rax
	cmpq	%rax, %r13
	jbe	.LBB66_39
.LBB66_7:                               # %"$12"
	movq	env(%rip), %rcx
	movl	$16, %eax
	callq	___chkstk_ms
	subq	%rax, %rsp
	movq	%rsp, %r14
	movq	%r13, (%r14)
	movq	%r14, %rax
	orq	$8, %rax
	movq	%rcx, (%rax)
	movq	%r14, env(%rip)
	testb	$8, %r13b
	je	.LBB66_17
# %bb.8:                                # %"$14"
	movq	-8(%r13), %rax
	testb	$8, %al
	je	.LBB66_17
# %bb.9:                                # %"$15"
	testb	$6, %al
	je	.LBB66_11
# %bb.10:
	leaq	-8(%r13), %rcx
	addq	%rax, %rax
	jae	.LBB66_15
	jmp	.LBB66_17
.LBB66_11:                              # %"$2.i"
	andq	$-9, %rax
	.p2align	4, 0x90
.LBB66_12:                              # %"$4.i"
                                        # =>This Inner Loop Header: Depth=1
	movq	%rax, %rcx
	movq	8(%rax), %rax
	testb	$6, %al
	je	.LBB66_12
# %bb.13:
	addq	$8, %rcx
	addq	%rax, %rax
	jb	.LBB66_17
.LBB66_15:                              # %"$7.i"
	leaq	(%rax,%rax), %rdx
	movl	$2, %r8d
	shldq	$62, %rdx, %r8
	addq	%rax, %rax
	movq	%r8, (%rcx)
	jb	.LBB66_17
# %bb.16:                               # %"$9.i"
	subq	$32, %rsp
	movq	%rbx, %rcx
	movq	%r13, %rdx
	callq	db
	addq	$32, %rsp
.LBB66_17:                              # %"$16"
	movq	(%r13), %r12
	testb	$15, %r15b
	je	.LBB66_18
# %bb.33:                               # %"$18"
	testb	$15, %r12b
	jne	.LBB66_37
# %bb.34:                               # %"$36"
	movq	8(%r12), %rax
	cmpq	%r12, %rax
	jne	.LBB66_36
# %bb.35:                               # %"$39"
	leaq	SymTab+8(%rip), %rax
	movq	%rax, (%r13)
	movq	(%r12), %rdi
	jmp	.LBB66_37
.LBB66_18:                              # %"$19"
	movq	(%r15), %rdi
	testb	$6, %dil
	jne	.LBB66_22
# %bb.19:                               # %"$21"
	testb	$8, %dil
	jne	.LBB66_20
# %bb.21:                               # %"$23"
	subq	$32, %rsp
	movq	%rdi, %rcx
	callq	evList
	addq	$32, %rsp
	movq	%rax, %rdi
.LBB66_22:                              # %"$20"
	testb	$15, %r12b
	je	.LBB66_23
.LBB66_24:                              # %"$26"
	subq	$32, %rsp
	movl	$10, %edx
	movq	%rdi, %rcx
	callq	cons
	addq	$32, %rsp
	movq	%rax, %rbx
	movq	%rax, 8(%rax)
	jmp	.LBB66_25
.LBB66_36:                              # %"$38"
	movq	8(%rax), %rcx
	movq	%rcx, 8(%r12)
	movq	(%rax), %rdi
	jmp	.LBB66_37
.LBB66_20:                              # %"$24"
	movq	(%rdi), %rdi
	testb	$15, %r12b
	jne	.LBB66_24
.LBB66_23:                              # %"$25"
	movq	8(%r12), %rdx
	subq	$32, %rsp
	movq	%rdi, %rcx
	callq	cons
	addq	$32, %rsp
	movq	%rax, %rbx
	movq	%rax, 8(%r12)
.LBB66_25:                              # %"$27"
	movq	8(%r15), %rsi
	testb	$15, %sil
	je	.LBB66_27
# %bb.26:
	movq	%rbx, %rax
	movq	%rbx, (%r13)
	jmp	.LBB66_37
.LBB66_30:                              # %"$34"
                                        #   in Loop: Header=BB66_27 Depth=1
	subq	$32, %rsp
	movq	%rdi, %rcx
	callq	evList
	addq	$32, %rsp
	movq	%rax, %rdi
	.p2align	4, 0x90
.LBB66_31:                              # %"$31"
                                        #   in Loop: Header=BB66_27 Depth=1
	movq	8(%rbx), %rdx
	subq	$32, %rsp
	movq	%rdi, %rcx
	callq	cons
	addq	$32, %rsp
	movq	%rax, 8(%rbx)
	movq	8(%rsi), %rsi
	testb	$15, %sil
	movq	%rax, %rbx
	jne	.LBB66_32
.LBB66_27:                              # %"$29"
                                        # =>This Inner Loop Header: Depth=1
	movq	(%rsi), %rdi
	testb	$6, %dil
	jne	.LBB66_31
# %bb.28:                               # %"$32"
                                        #   in Loop: Header=BB66_27 Depth=1
	testb	$8, %dil
	je	.LBB66_30
# %bb.29:                               # %"$35"
                                        #   in Loop: Header=BB66_27 Depth=1
	movq	(%rdi), %rdi
	jmp	.LBB66_31
.LBB66_32:                              # %"$30"
	movq	%rax, (%r13)
.LBB66_37:                              # %"$17"
	movq	8(%r14), %rax
	movq	%rax, env(%rip)
	movq	%rdi, %rax
	leaq	8(%rbp), %rsp
	popq	%rbx
	popq	%rdi
	popq	%rsi
	popq	%r12
	popq	%r13
	popq	%r14
	popq	%r15
	popq	%rbp
	retq
.LBB66_38:                              # %"$7"
	subq	$32, %rsp
	movq	%rbx, %rcx
	movq	%r13, %rdx
	callq	varErr
.LBB66_39:                              # %"$11"
	subq	$32, %rsp
	movq	%rbx, %rcx
	movq	%r13, %rdx
	callq	protErr
	int3
	.seh_handlerdata
	.text
	.seh_endproc
                                        # -- End function
	.def	 _rid;
	.scl	2;
	.type	32;
	.endef
	.globl	_rid                            # -- Begin function _rid
	.p2align	4, 0x90
_rid:                                   # @_rid
.seh_proc _rid
# %bb.0:                                # %"$1"
	pushq	%rbp
	.seh_pushreg %rbp
	pushq	%r15
	.seh_pushreg %r15
	pushq	%r14
	.seh_pushreg %r14
	pushq	%r12
	.seh_pushreg %r12
	pushq	%rsi
	.seh_pushreg %rsi
	pushq	%rdi
	.seh_pushreg %rdi
	pushq	%rbx
	.seh_pushreg %rbx
	movq	%rsp, %rbp
	.seh_setframe %rbp, 0
	.seh_endprologue
	movq	%rcx, %rdi
	movq	8(%rcx), %rax
	movq	(%rax), %r14
	movq	8(%rax), %rbx
	testb	$6, %r14b
	jne	.LBB67_4
# %bb.1:                                # %"$3"
	testb	$8, %r14b
	jne	.LBB67_3
# %bb.2:                                # %"$5"
	subq	$32, %rsp
	movq	%r14, %rcx
	callq	evList
	addq	$32, %rsp
	movq	%rax, %r14
	jmp	.LBB67_4
.LBB67_3:                               # %"$6"
	movq	(%r14), %r14
.LBB67_4:                               # %"$2"
	testb	$6, %r14b
	jne	.LBB67_38
# %bb.5:                                # %"$8"
	leaq	SymTab+8(%rip), %rsi
	cmpq	%rsi, %r14
	jb	.LBB67_7
# %bb.6:                                # %"$8"
	leaq	SymTab+280(%rip), %rax
	cmpq	%rax, %r14
	jbe	.LBB67_39
.LBB67_7:                               # %"$12"
	movq	env(%rip), %rcx
	movl	$16, %eax
	callq	___chkstk_ms
	subq	%rax, %rsp
	movq	%rsp, %r15
	movq	%r14, (%r15)
	movq	%r15, %rax
	orq	$8, %rax
	movq	%rcx, (%rax)
	movq	%r15, env(%rip)
	testb	$8, %r14b
	je	.LBB67_16
# %bb.8:                                # %"$14"
	movq	-8(%r14), %rax
	testb	$8, %al
	je	.LBB67_16
# %bb.9:                                # %"$15"
	testb	$6, %al
	je	.LBB67_11
# %bb.10:
	leaq	-8(%r14), %rcx
	addq	%rax, %rax
	jae	.LBB67_14
	jmp	.LBB67_16
.LBB67_11:                              # %"$2.i"
	andq	$-9, %rax
	.p2align	4, 0x90
.LBB67_12:                              # %"$4.i"
                                        # =>This Inner Loop Header: Depth=1
	movq	%rax, %rcx
	movq	8(%rax), %rax
	testb	$6, %al
	je	.LBB67_12
# %bb.13:
	addq	$8, %rcx
	addq	%rax, %rax
	jb	.LBB67_16
.LBB67_14:                              # %"$7.i"
	leaq	(%rax,%rax), %rdx
	movl	$2, %r8d
	shldq	$62, %rdx, %r8
	addq	%rax, %rax
	movq	%r8, (%rcx)
	jb	.LBB67_16
# %bb.15:                               # %"$9.i"
	subq	$32, %rsp
	movq	%rdi, %rcx
	movq	%r14, %rdx
	callq	db
	addq	$32, %rsp
.LBB67_16:                              # %"$16"
	movq	(%rbx), %r12
	testb	$6, %r12b
	jne	.LBB67_20
# %bb.17:                               # %"$18"
	testb	$8, %r12b
	jne	.LBB67_19
# %bb.18:                               # %"$20"
	subq	$32, %rsp
	movq	%r12, %rcx
	callq	evList
	addq	$32, %rsp
	movq	%rax, %r12
	jmp	.LBB67_20
.LBB67_19:                              # %"$21"
	movq	(%r12), %r12
.LBB67_20:                              # %"$17"
	movq	(%r14), %rdi
	testb	$15, %dil
	je	.LBB67_23
# %bb.21:                               # %"$23"
	subq	$32, %rsp
	movq	%rdi, %rcx
	movq	%r12, %rdx
	callq	equal
	addq	$32, %rsp
	testb	$1, %al
	je	.LBB67_33
# %bb.22:                               # %"$45"
	movq	%rsi, (%r14)
	movq	%rsi, %rdi
	jmp	.LBB67_33
.LBB67_23:                              # %"$24"
	movq	8(%rdi), %rsi
	movq	%rdi, %rbx
	testb	$15, %sil
	je	.LBB67_25
	jmp	.LBB67_28
	.p2align	4, 0x90
.LBB67_24:                              # %"$42"
                                        #   in Loop: Header=BB67_25 Depth=1
	movq	8(%rbx), %rbx
	movq	8(%rbx), %rsi
	testb	$15, %sil
	jne	.LBB67_28
.LBB67_25:                              # %"$26"
                                        # =>This Inner Loop Header: Depth=1
	movq	(%rsi), %rcx
	subq	$32, %rsp
	movq	%r12, %rdx
	callq	equal
	addq	$32, %rsp
	cmpq	%rdi, %rsi
	je	.LBB67_34
# %bb.26:                               # %"$34"
                                        #   in Loop: Header=BB67_25 Depth=1
	testb	$1, %al
	je	.LBB67_24
# %bb.27:                               # %"$41"
                                        #   in Loop: Header=BB67_25 Depth=1
	movq	8(%rsi), %rsi
	movq	%rsi, 8(%rbx)
	testb	$15, %sil
	je	.LBB67_25
.LBB67_28:                              # %"$28"
	subq	$32, %rsp
	movq	%rsi, %rcx
	movq	%r12, %rdx
	callq	equal
	addq	$32, %rsp
	testb	$1, %al
	je	.LBB67_30
# %bb.29:                               # %"$29"
	leaq	SymTab+8(%rip), %rax
	movq	%rax, 8(%rbx)
.LBB67_30:                              # %"$30"
	movq	(%rdi), %rcx
	subq	$32, %rsp
	movq	%r12, %rdx
	callq	equal
	addq	$32, %rsp
	testb	$1, %al
	je	.LBB67_33
# %bb.31:                               # %"$31"
	movq	8(%rdi), %rdi
.LBB67_32:                              # %"$22"
	movq	%rdi, (%r14)
.LBB67_33:                              # %"$22"
	movq	8(%r15), %rax
	movq	%rax, env(%rip)
	movq	%rdi, %rax
	movq	%rbp, %rsp
	popq	%rbx
	popq	%rdi
	popq	%rsi
	popq	%r12
	popq	%r14
	popq	%r15
	popq	%rbp
	retq
.LBB67_34:                              # %"$35"
	testb	$1, %al
	je	.LBB67_33
# %bb.35:                               # %"$37"
	cmpq	%rbx, %rdi
	jne	.LBB67_37
# %bb.36:                               # %"$39"
	leaq	SymTab+8(%rip), %rdi
	jmp	.LBB67_32
.LBB67_37:                              # %"$40"
	movq	8(%rsi), %rax
	movq	%rax, 8(%rbx)
	movq	%rbx, (%r14)
	movq	%rbx, %rdi
	jmp	.LBB67_33
.LBB67_38:                              # %"$7"
	subq	$32, %rsp
	movq	%rdi, %rcx
	movq	%r14, %rdx
	callq	varErr
.LBB67_39:                              # %"$11"
	subq	$32, %rsp
	movq	%rdi, %rcx
	movq	%r14, %rdx
	callq	protErr
	int3
	.seh_handlerdata
	.text
	.seh_endproc
                                        # -- End function
	.def	 _enum;
	.scl	2;
	.type	32;
	.endef
	.globl	_enum                           # -- Begin function _enum
	.p2align	4, 0x90
_enum:                                  # @_enum
.seh_proc _enum
# %bb.0:                                # %"$1"
	pushq	%rbp
	.seh_pushreg %rbp
	pushq	%r15
	.seh_pushreg %r15
	pushq	%r14
	.seh_pushreg %r14
	pushq	%r13
	.seh_pushreg %r13
	pushq	%r12
	.seh_pushreg %r12
	pushq	%rsi
	.seh_pushreg %rsi
	pushq	%rdi
	.seh_pushreg %rdi
	pushq	%rbx
	.seh_pushreg %rbx
	subq	$24, %rsp
	.seh_stackalloc 24
	leaq	16(%rsp), %rbp
	.seh_setframe %rbp, 16
	.seh_endprologue
	movq	%rcx, %r15
	movq	8(%rcx), %rax
	movq	(%rax), %rbx
	movq	8(%rax), %r12
	testb	$6, %bl
	jne	.LBB68_4
# %bb.1:                                # %"$3"
	testb	$8, %bl
	jne	.LBB68_2
# %bb.3:                                # %"$5"
	subq	$32, %rsp
	movq	%rbx, %rcx
	callq	evList
	addq	$32, %rsp
	movq	%rax, %rbx
	jmp	.LBB68_4
.LBB68_2:                               # %"$6"
	movq	(%rbx), %rbx
.LBB68_4:                               # %"$2"
	testb	$6, %bl
	jne	.LBB68_47
# %bb.5:                                # %"$8"
	leaq	SymTab+8(%rip), %r14
	cmpq	%r14, %rbx
	jb	.LBB68_7
# %bb.6:                                # %"$8"
	leaq	SymTab+280(%rip), %rax
	cmpq	%rax, %rbx
	jbe	.LBB68_48
.LBB68_7:                               # %"$12"
	movq	env(%rip), %rcx
	movl	$16, %eax
	callq	___chkstk_ms
	subq	%rax, %rsp
	movq	%rsp, %r13
	movq	%rbx, (%r13)
	movq	%r13, %rax
	orq	$8, %rax
	movq	%rcx, (%rax)
	movq	%r13, env(%rip)
	testb	$15, %r12b
	je	.LBB68_8
# %bb.33:                               # %"$14"
	movl	$16, %eax
	callq	___chkstk_ms
	subq	%rax, %rsp
	movq	%rsp, %r12
	movq	%r13, (%rbp)                    # 8-byte Spill
	movq	%r13, 8(%r12)
	movl	$16, %eax
	callq	___chkstk_ms
	subq	%rax, %rsp
	movq	%rsp, %r13
	movq	$10, (%r13)
	movq	%r12, 8(%r13)
	movl	$16, %eax
	callq	___chkstk_ms
	subq	%rax, %rsp
	movq	%rsp, %rax
	movq	%r14, (%rax)
	movq	%r13, 8(%rax)
	movq	%rax, -8(%rbp)                  # 8-byte Spill
	movq	%rax, env(%rip)
	movq	(%rbx), %rax
	movl	$1, %ebx
	movl	$10, %ecx
	xorl	%esi, %esi
.LBB68_34:                              # %"$42"
                                        # =>This Loop Header: Depth=1
                                        #     Child Loop BB68_37 Depth 2
                                        #     Child Loop BB68_39 Depth 2
                                        #       Child Loop BB68_44 Depth 3
	movq	8(%rax), %rdx
	movq	8(%rdx), %rdi
	testb	$15, %dil
	je	.LBB68_36
# %bb.35:                               #   in Loop: Header=BB68_34 Depth=1
	movq	%rax, %r15
	jmp	.LBB68_38
	.p2align	4, 0x90
.LBB68_36:                              # %"$44.preheader"
                                        #   in Loop: Header=BB68_34 Depth=1
	addq	$8, %rdx
	.p2align	4, 0x90
.LBB68_37:                              # %"$44"
                                        #   Parent Loop BB68_34 Depth=1
